
PING PONG GAME.elf:     file format elf32-avr

Sections:
Idx Name          Size      VMA       LMA       File off  Algn
  0 .text         0000105a  00000000  00000000  00000094  2**1
                  CONTENTS, ALLOC, LOAD, READONLY, CODE
  1 .data         000000e0  00800060  0000105a  000010ee  2**0
                  CONTENTS, ALLOC, LOAD, DATA
  2 .bss          00000012  00800140  00800140  000011ce  2**0
                  ALLOC
  3 .comment      00000030  00000000  00000000  000011ce  2**0
                  CONTENTS, READONLY
  4 .note.gnu.avr.deviceinfo 0000003c  00000000  00000000  00001200  2**2
                  CONTENTS, READONLY
  5 .debug_aranges 00000238  00000000  00000000  0000123c  2**0
                  CONTENTS, READONLY, DEBUGGING
  6 .debug_info   00002e9c  00000000  00000000  00001474  2**0
                  CONTENTS, READONLY, DEBUGGING
  7 .debug_abbrev 00000ebd  00000000  00000000  00004310  2**0
                  CONTENTS, READONLY, DEBUGGING
  8 .debug_line   00001b12  00000000  00000000  000051cd  2**0
                  CONTENTS, READONLY, DEBUGGING
  9 .debug_frame  00000570  00000000  00000000  00006ce0  2**2
                  CONTENTS, READONLY, DEBUGGING
 10 .debug_str    00000bb4  00000000  00000000  00007250  2**0
                  CONTENTS, READONLY, DEBUGGING
 11 .debug_loc    0000252f  00000000  00000000  00007e04  2**0
                  CONTENTS, READONLY, DEBUGGING
 12 .debug_ranges 000001b0  00000000  00000000  0000a333  2**0
                  CONTENTS, READONLY, DEBUGGING

Disassembly of section .text:

00000000 <__vectors>:
       0:	0c 94 2a 00 	jmp	0x54	; 0x54 <__ctors_end>
       4:	0c 94 9c 07 	jmp	0xf38	; 0xf38 <__vector_1>
       8:	0c 94 c9 07 	jmp	0xf92	; 0xf92 <__vector_2>
       c:	0c 94 f6 07 	jmp	0xfec	; 0xfec <__vector_3>
      10:	0c 94 47 00 	jmp	0x8e	; 0x8e <__bad_interrupt>
      14:	0c 94 47 00 	jmp	0x8e	; 0x8e <__bad_interrupt>
      18:	0c 94 47 00 	jmp	0x8e	; 0x8e <__bad_interrupt>
      1c:	0c 94 47 00 	jmp	0x8e	; 0x8e <__bad_interrupt>
      20:	0c 94 47 00 	jmp	0x8e	; 0x8e <__bad_interrupt>
      24:	0c 94 47 00 	jmp	0x8e	; 0x8e <__bad_interrupt>
      28:	0c 94 47 00 	jmp	0x8e	; 0x8e <__bad_interrupt>
      2c:	0c 94 47 00 	jmp	0x8e	; 0x8e <__bad_interrupt>
      30:	0c 94 47 00 	jmp	0x8e	; 0x8e <__bad_interrupt>
      34:	0c 94 47 00 	jmp	0x8e	; 0x8e <__bad_interrupt>
      38:	0c 94 47 00 	jmp	0x8e	; 0x8e <__bad_interrupt>
      3c:	0c 94 47 00 	jmp	0x8e	; 0x8e <__bad_interrupt>
      40:	0c 94 47 00 	jmp	0x8e	; 0x8e <__bad_interrupt>
      44:	0c 94 47 00 	jmp	0x8e	; 0x8e <__bad_interrupt>
      48:	0c 94 47 00 	jmp	0x8e	; 0x8e <__bad_interrupt>
      4c:	0c 94 47 00 	jmp	0x8e	; 0x8e <__bad_interrupt>
      50:	0c 94 47 00 	jmp	0x8e	; 0x8e <__bad_interrupt>

00000054 <__ctors_end>:
      54:	11 24       	eor	r1, r1
      56:	1f be       	out	0x3f, r1	; 63
      58:	cf e5       	ldi	r28, 0x5F	; 95
      5a:	d8 e0       	ldi	r29, 0x08	; 8
      5c:	de bf       	out	0x3e, r29	; 62
      5e:	cd bf       	out	0x3d, r28	; 61

00000060 <__do_copy_data>:
      60:	11 e0       	ldi	r17, 0x01	; 1
      62:	a0 e6       	ldi	r26, 0x60	; 96
      64:	b0 e0       	ldi	r27, 0x00	; 0
      66:	ea e5       	ldi	r30, 0x5A	; 90
      68:	f0 e1       	ldi	r31, 0x10	; 16
      6a:	02 c0       	rjmp	.+4      	; 0x70 <__do_copy_data+0x10>
      6c:	05 90       	lpm	r0, Z+
      6e:	0d 92       	st	X+, r0
      70:	a0 34       	cpi	r26, 0x40	; 64
      72:	b1 07       	cpc	r27, r17
      74:	d9 f7       	brne	.-10     	; 0x6c <__do_copy_data+0xc>

00000076 <__do_clear_bss>:
      76:	21 e0       	ldi	r18, 0x01	; 1
      78:	a0 e4       	ldi	r26, 0x40	; 64
      7a:	b1 e0       	ldi	r27, 0x01	; 1
      7c:	01 c0       	rjmp	.+2      	; 0x80 <.do_clear_bss_start>

0000007e <.do_clear_bss_loop>:
      7e:	1d 92       	st	X+, r1

00000080 <.do_clear_bss_start>:
      80:	a2 35       	cpi	r26, 0x52	; 82
      82:	b2 07       	cpc	r27, r18
      84:	e1 f7       	brne	.-8      	; 0x7e <.do_clear_bss_loop>
      86:	0e 94 e8 05 	call	0xbd0	; 0xbd0 <main>
      8a:	0c 94 2b 08 	jmp	0x1056	; 0x1056 <_exit>

0000008e <__bad_interrupt>:
      8e:	0c 94 00 00 	jmp	0	; 0x0 <__vectors>

00000092 <Player1_Interrupt>:
u8 PLAYER_1_RES, PLAYER_2_RES; 
state MOVING_STATE = start;

void Player1_Interrupt(void *ptr)
{
	MOVING_STATE = right;
      92:	81 e0       	ldi	r24, 0x01	; 1
      94:	80 93 40 01 	sts	0x0140, r24	; 0x800140 <__data_end>
      98:	08 95       	ret

0000009a <Player2_Interrupt>:
}

void Player2_Interrupt(void *ptr)
{
	MOVING_STATE = left;
      9a:	82 e0       	ldi	r24, 0x02	; 2
      9c:	80 93 40 01 	sts	0x0140, r24	; 0x800140 <__data_end>
      a0:	08 95       	ret

000000a2 <PING_PONG_vidRoundNum>:
	}
}

static void PING_PONG_vidRoundNum(void)
{
	LCD_vidClearScreen();
      a2:	0e 94 27 03 	call	0x64e	; 0x64e <LCD_vidClearScreen>
	switch(PLAYER_1_RES+PLAYER_2_RES)
      a6:	20 91 51 01 	lds	r18, 0x0151	; 0x800151 <PLAYER_1_RES>
      aa:	80 91 50 01 	lds	r24, 0x0150	; 0x800150 <PLAYER_2_RES>
      ae:	90 e0       	ldi	r25, 0x00	; 0
      b0:	82 0f       	add	r24, r18
      b2:	91 1d       	adc	r25, r1
      b4:	82 30       	cpi	r24, 0x02	; 2
      b6:	91 05       	cpc	r25, r1
      b8:	41 f1       	breq	.+80     	; 0x10a <PING_PONG_vidRoundNum+0x68>
      ba:	2c f4       	brge	.+10     	; 0xc6 <PING_PONG_vidRoundNum+0x24>
      bc:	00 97       	sbiw	r24, 0x00	; 0
      be:	49 f0       	breq	.+18     	; 0xd2 <PING_PONG_vidRoundNum+0x30>
      c0:	01 97       	sbiw	r24, 0x01	; 1
      c2:	a9 f0       	breq	.+42     	; 0xee <PING_PONG_vidRoundNum+0x4c>
      c4:	4f c0       	rjmp	.+158    	; 0x164 <PING_PONG_vidRoundNum+0xc2>
      c6:	83 30       	cpi	r24, 0x03	; 3
      c8:	91 05       	cpc	r25, r1
      ca:	69 f1       	breq	.+90     	; 0x126 <PING_PONG_vidRoundNum+0x84>
      cc:	04 97       	sbiw	r24, 0x04	; 4
      ce:	c9 f1       	breq	.+114    	; 0x142 <PING_PONG_vidRoundNum+0xa0>
      d0:	49 c0       	rjmp	.+146    	; 0x164 <PING_PONG_vidRoundNum+0xc2>
	{
		case 0:
		LCD_enuWriteString("   1st Round   ");
      d2:	8f e8       	ldi	r24, 0x8F	; 143
      d4:	90 e0       	ldi	r25, 0x00	; 0
      d6:	0e 94 34 03 	call	0x668	; 0x668 <LCD_enuWriteString>
	#else
		//round up by default
		__ticks_dc = (uint32_t)(ceil(fabs(__tmp)));
	#endif

	__builtin_avr_delay_cycles(__ticks_dc);
      da:	2f e3       	ldi	r18, 0x3F	; 63
      dc:	8d e0       	ldi	r24, 0x0D	; 13
      de:	93 e0       	ldi	r25, 0x03	; 3
      e0:	21 50       	subi	r18, 0x01	; 1
      e2:	80 40       	sbci	r24, 0x00	; 0
      e4:	90 40       	sbci	r25, 0x00	; 0
      e6:	e1 f7       	brne	.-8      	; 0xe0 <PING_PONG_vidRoundNum+0x3e>
      e8:	00 c0       	rjmp	.+0      	; 0xea <PING_PONG_vidRoundNum+0x48>
      ea:	00 00       	nop
      ec:	3b c0       	rjmp	.+118    	; 0x164 <PING_PONG_vidRoundNum+0xc2>
		_delay_ms(1000);
		break;
		
		case 1:
		LCD_enuWriteString("   2nd Round   ");
      ee:	8f e9       	ldi	r24, 0x9F	; 159
      f0:	90 e0       	ldi	r25, 0x00	; 0
      f2:	0e 94 34 03 	call	0x668	; 0x668 <LCD_enuWriteString>
      f6:	2f e3       	ldi	r18, 0x3F	; 63
      f8:	8d e0       	ldi	r24, 0x0D	; 13
      fa:	93 e0       	ldi	r25, 0x03	; 3
      fc:	21 50       	subi	r18, 0x01	; 1
      fe:	80 40       	sbci	r24, 0x00	; 0
     100:	90 40       	sbci	r25, 0x00	; 0
     102:	e1 f7       	brne	.-8      	; 0xfc <PING_PONG_vidRoundNum+0x5a>
     104:	00 c0       	rjmp	.+0      	; 0x106 <PING_PONG_vidRoundNum+0x64>
     106:	00 00       	nop
     108:	2d c0       	rjmp	.+90     	; 0x164 <PING_PONG_vidRoundNum+0xc2>
		_delay_ms(1000);
		break;
		
		case 2:
		LCD_enuWriteString("   3rd Round   ");
     10a:	8f ea       	ldi	r24, 0xAF	; 175
     10c:	90 e0       	ldi	r25, 0x00	; 0
     10e:	0e 94 34 03 	call	0x668	; 0x668 <LCD_enuWriteString>
     112:	2f e3       	ldi	r18, 0x3F	; 63
     114:	8d e0       	ldi	r24, 0x0D	; 13
     116:	93 e0       	ldi	r25, 0x03	; 3
     118:	21 50       	subi	r18, 0x01	; 1
     11a:	80 40       	sbci	r24, 0x00	; 0
     11c:	90 40       	sbci	r25, 0x00	; 0
     11e:	e1 f7       	brne	.-8      	; 0x118 <PING_PONG_vidRoundNum+0x76>
     120:	00 c0       	rjmp	.+0      	; 0x122 <PING_PONG_vidRoundNum+0x80>
     122:	00 00       	nop
     124:	1f c0       	rjmp	.+62     	; 0x164 <PING_PONG_vidRoundNum+0xc2>
		_delay_ms(1000);
		break;
		
		case 3:
		LCD_enuWriteString("   4th Round   ");
     126:	8f eb       	ldi	r24, 0xBF	; 191
     128:	90 e0       	ldi	r25, 0x00	; 0
     12a:	0e 94 34 03 	call	0x668	; 0x668 <LCD_enuWriteString>
     12e:	2f e3       	ldi	r18, 0x3F	; 63
     130:	8d e0       	ldi	r24, 0x0D	; 13
     132:	93 e0       	ldi	r25, 0x03	; 3
     134:	21 50       	subi	r18, 0x01	; 1
     136:	80 40       	sbci	r24, 0x00	; 0
     138:	90 40       	sbci	r25, 0x00	; 0
     13a:	e1 f7       	brne	.-8      	; 0x134 <PING_PONG_vidRoundNum+0x92>
     13c:	00 c0       	rjmp	.+0      	; 0x13e <PING_PONG_vidRoundNum+0x9c>
     13e:	00 00       	nop
     140:	11 c0       	rjmp	.+34     	; 0x164 <PING_PONG_vidRoundNum+0xc2>
		_delay_ms(1000);
		break;
		
		case 4:
		LCD_enuWriteString("   5th Round    ");
     142:	8f ec       	ldi	r24, 0xCF	; 207
     144:	90 e0       	ldi	r25, 0x00	; 0
     146:	0e 94 34 03 	call	0x668	; 0x668 <LCD_enuWriteString>
		LCD_enuWriteString("   Last Round   ");
     14a:	80 ee       	ldi	r24, 0xE0	; 224
     14c:	90 e0       	ldi	r25, 0x00	; 0
     14e:	0e 94 34 03 	call	0x668	; 0x668 <LCD_enuWriteString>
     152:	2f e3       	ldi	r18, 0x3F	; 63
     154:	8d e0       	ldi	r24, 0x0D	; 13
     156:	93 e0       	ldi	r25, 0x03	; 3
     158:	21 50       	subi	r18, 0x01	; 1
     15a:	80 40       	sbci	r24, 0x00	; 0
     15c:	90 40       	sbci	r25, 0x00	; 0
     15e:	e1 f7       	brne	.-8      	; 0x158 <PING_PONG_vidRoundNum+0xb6>
     160:	00 c0       	rjmp	.+0      	; 0x162 <PING_PONG_vidRoundNum+0xc0>
     162:	00 00       	nop
		_delay_ms(1000);
		break;
	}
	
	LCD_vidClearScreen();
     164:	0e 94 27 03 	call	0x64e	; 0x64e <LCD_vidClearScreen>
     168:	08 95       	ret

0000016a <PING_PONG_GAME_vidPlayRound>:

static void PING_PONG_GAME_vidPlayRound(void)
{
	while(1)
	{
		if(MOVING_STATE == right)
     16a:	80 91 40 01 	lds	r24, 0x0140	; 0x800140 <__data_end>
     16e:	81 30       	cpi	r24, 0x01	; 1
     170:	41 f5       	brne	.+80     	; 0x1c2 <PING_PONG_GAME_vidPlayRound+0x58>
		{
			PING_PONG_Ball_Position = 0;
     172:	10 92 42 01 	sts	0x0142, r1	; 0x800142 <PING_PONG_Ball_Position>
			while (1)
			{
				if(MOVING_STATE != right || PING_PONG_Ball_Position >= 16)
     176:	80 91 40 01 	lds	r24, 0x0140	; 0x800140 <__data_end>
     17a:	81 30       	cpi	r24, 0x01	; 1
     17c:	11 f5       	brne	.+68     	; 0x1c2 <PING_PONG_GAME_vidPlayRound+0x58>
     17e:	80 91 42 01 	lds	r24, 0x0142	; 0x800142 <PING_PONG_Ball_Position>
     182:	80 31       	cpi	r24, 0x10	; 16
     184:	f4 f4       	brge	.+60     	; 0x1c2 <PING_PONG_GAME_vidPlayRound+0x58>
				break;
				
				LCD_vidClearScreen();
     186:	0e 94 27 03 	call	0x64e	; 0x64e <LCD_vidClearScreen>
				LCD_enuGoToPosition(PING_PONG_Ball_Line_Position,PING_PONG_Ball_Position);
     18a:	60 91 42 01 	lds	r22, 0x0142	; 0x800142 <PING_PONG_Ball_Position>
     18e:	80 91 41 01 	lds	r24, 0x0141	; 0x800141 <PING_PONG_Ball_Line_Position>
     192:	0e 94 c0 02 	call	0x580	; 0x580 <LCD_enuGoToPosition>
				LCD_enuDisplayChar('0');
     196:	80 e3       	ldi	r24, 0x30	; 48
     198:	0e 94 17 03 	call	0x62e	; 0x62e <LCD_enuDisplayChar>
				PING_PONG_Ball_Line_Position = !PING_PONG_Ball_Line_Position;
     19c:	81 e0       	ldi	r24, 0x01	; 1
     19e:	90 91 41 01 	lds	r25, 0x0141	; 0x800141 <PING_PONG_Ball_Line_Position>
     1a2:	91 11       	cpse	r25, r1
     1a4:	80 e0       	ldi	r24, 0x00	; 0
     1a6:	80 93 41 01 	sts	0x0141, r24	; 0x800141 <PING_PONG_Ball_Line_Position>
     1aa:	83 e2       	ldi	r24, 0x23	; 35
     1ac:	94 ef       	ldi	r25, 0xF4	; 244
     1ae:	01 97       	sbiw	r24, 0x01	; 1
     1b0:	f1 f7       	brne	.-4      	; 0x1ae <PING_PONG_GAME_vidPlayRound+0x44>
     1b2:	00 c0       	rjmp	.+0      	; 0x1b4 <PING_PONG_GAME_vidPlayRound+0x4a>
     1b4:	00 00       	nop
				_delay_ms(250);
				PING_PONG_Ball_Position++;
     1b6:	80 91 42 01 	lds	r24, 0x0142	; 0x800142 <PING_PONG_Ball_Position>
     1ba:	8f 5f       	subi	r24, 0xFF	; 255
     1bc:	80 93 42 01 	sts	0x0142, r24	; 0x800142 <PING_PONG_Ball_Position>
			}
     1c0:	da cf       	rjmp	.-76     	; 0x176 <PING_PONG_GAME_vidPlayRound+0xc>
		}
		
		if(MOVING_STATE == left)
     1c2:	80 91 40 01 	lds	r24, 0x0140	; 0x800140 <__data_end>
     1c6:	82 30       	cpi	r24, 0x02	; 2
     1c8:	49 f5       	brne	.+82     	; 0x21c <PING_PONG_GAME_vidPlayRound+0xb2>
		{
			PING_PONG_Ball_Position = 15;
     1ca:	8f e0       	ldi	r24, 0x0F	; 15
     1cc:	80 93 42 01 	sts	0x0142, r24	; 0x800142 <PING_PONG_Ball_Position>
			while(1)
			{
				if(MOVING_STATE != left || PING_PONG_Ball_Position < 0)
     1d0:	80 91 40 01 	lds	r24, 0x0140	; 0x800140 <__data_end>
     1d4:	82 30       	cpi	r24, 0x02	; 2
     1d6:	11 f5       	brne	.+68     	; 0x21c <PING_PONG_GAME_vidPlayRound+0xb2>
     1d8:	80 91 42 01 	lds	r24, 0x0142	; 0x800142 <PING_PONG_Ball_Position>
     1dc:	88 23       	and	r24, r24
     1de:	f4 f0       	brlt	.+60     	; 0x21c <PING_PONG_GAME_vidPlayRound+0xb2>
				break;
				LCD_vidClearScreen();
     1e0:	0e 94 27 03 	call	0x64e	; 0x64e <LCD_vidClearScreen>
				LCD_enuGoToPosition(PING_PONG_Ball_Line_Position,PING_PONG_Ball_Position);
     1e4:	60 91 42 01 	lds	r22, 0x0142	; 0x800142 <PING_PONG_Ball_Position>
     1e8:	80 91 41 01 	lds	r24, 0x0141	; 0x800141 <PING_PONG_Ball_Line_Position>
     1ec:	0e 94 c0 02 	call	0x580	; 0x580 <LCD_enuGoToPosition>
				LCD_enuDisplayChar('0');
     1f0:	80 e3       	ldi	r24, 0x30	; 48
     1f2:	0e 94 17 03 	call	0x62e	; 0x62e <LCD_enuDisplayChar>
				PING_PONG_Ball_Line_Position = !PING_PONG_Ball_Line_Position;
     1f6:	81 e0       	ldi	r24, 0x01	; 1
     1f8:	90 91 41 01 	lds	r25, 0x0141	; 0x800141 <PING_PONG_Ball_Line_Position>
     1fc:	91 11       	cpse	r25, r1
     1fe:	80 e0       	ldi	r24, 0x00	; 0
     200:	80 93 41 01 	sts	0x0141, r24	; 0x800141 <PING_PONG_Ball_Line_Position>
     204:	83 e2       	ldi	r24, 0x23	; 35
     206:	94 ef       	ldi	r25, 0xF4	; 244
     208:	01 97       	sbiw	r24, 0x01	; 1
     20a:	f1 f7       	brne	.-4      	; 0x208 <PING_PONG_GAME_vidPlayRound+0x9e>
     20c:	00 c0       	rjmp	.+0      	; 0x20e <PING_PONG_GAME_vidPlayRound+0xa4>
     20e:	00 00       	nop
				_delay_ms(250);
				PING_PONG_Ball_Position--;
     210:	80 91 42 01 	lds	r24, 0x0142	; 0x800142 <PING_PONG_Ball_Position>
     214:	81 50       	subi	r24, 0x01	; 1
     216:	80 93 42 01 	sts	0x0142, r24	; 0x800142 <PING_PONG_Ball_Position>
			}
     21a:	da cf       	rjmp	.-76     	; 0x1d0 <PING_PONG_GAME_vidPlayRound+0x66>
		}
		
		if(PING_PONG_Ball_Position >= 16 && MOVING_STATE != left)
     21c:	80 91 42 01 	lds	r24, 0x0142	; 0x800142 <PING_PONG_Ball_Position>
     220:	80 31       	cpi	r24, 0x10	; 16
     222:	6c f0       	brlt	.+26     	; 0x23e <PING_PONG_GAME_vidPlayRound+0xd4>
     224:	90 91 40 01 	lds	r25, 0x0140	; 0x800140 <__data_end>
     228:	92 30       	cpi	r25, 0x02	; 2
     22a:	49 f0       	breq	.+18     	; 0x23e <PING_PONG_GAME_vidPlayRound+0xd4>
		{
			PLAYER_1_RES++;
     22c:	60 91 51 01 	lds	r22, 0x0151	; 0x800151 <PLAYER_1_RES>
     230:	6f 5f       	subi	r22, 0xFF	; 255
     232:	60 93 51 01 	sts	0x0151, r22	; 0x800151 <PLAYER_1_RES>
			Seven_Segment_enuDisplayNumber(0,PLAYER_1_RES);
     236:	80 e0       	ldi	r24, 0x00	; 0
     238:	0e 94 51 04 	call	0x8a2	; 0x8a2 <Seven_Segment_enuDisplayNumber>
			break;
     23c:	08 95       	ret
		}
		else if(PING_PONG_Ball_Position < 0 && MOVING_STATE != right)
     23e:	88 23       	and	r24, r24
     240:	0c f0       	brlt	.+2      	; 0x244 <PING_PONG_GAME_vidPlayRound+0xda>
     242:	93 cf       	rjmp	.-218    	; 0x16a <PING_PONG_GAME_vidPlayRound>
     244:	80 91 40 01 	lds	r24, 0x0140	; 0x800140 <__data_end>
     248:	81 30       	cpi	r24, 0x01	; 1
     24a:	09 f4       	brne	.+2      	; 0x24e <PING_PONG_GAME_vidPlayRound+0xe4>
     24c:	8e cf       	rjmp	.-228    	; 0x16a <PING_PONG_GAME_vidPlayRound>
		{
			PLAYER_2_RES++;
     24e:	60 91 50 01 	lds	r22, 0x0150	; 0x800150 <PLAYER_2_RES>
     252:	6f 5f       	subi	r22, 0xFF	; 255
     254:	60 93 50 01 	sts	0x0150, r22	; 0x800150 <PLAYER_2_RES>
			Seven_Segment_enuDisplayNumber(1,PLAYER_2_RES);
     258:	81 e0       	ldi	r24, 0x01	; 1
     25a:	0e 94 51 04 	call	0x8a2	; 0x8a2 <Seven_Segment_enuDisplayNumber>
     25e:	08 95       	ret

00000260 <PING_PONG_GAME_enuInit>:

ES_t PING_PONG_GAME_enuInit(void)
{
	ES_t Local_enuErrorState = ES_NOK;
	
	DIO_enuSetPinDirection(DIO_u8PORTD, DIO_u8PIN2, DIO_u8INPUT);
     260:	40 e0       	ldi	r20, 0x00	; 0
     262:	62 e0       	ldi	r22, 0x02	; 2
     264:	83 e0       	ldi	r24, 0x03	; 3
     266:	0e 94 ed 05 	call	0xbda	; 0xbda <DIO_enuSetPinDirection>
	DIO_enuSetPinVal(DIO_u8PORTD, DIO_u8PIN2, DIO_u8PULL_UP);
     26a:	41 e0       	ldi	r20, 0x01	; 1
     26c:	62 e0       	ldi	r22, 0x02	; 2
     26e:	83 e0       	ldi	r24, 0x03	; 3
     270:	0e 94 5f 06 	call	0xcbe	; 0xcbe <DIO_enuSetPinVal>
	DIO_enuSetPinDirection(DIO_u8PORTD, DIO_u8PIN3, DIO_u8INPUT);
     274:	40 e0       	ldi	r20, 0x00	; 0
     276:	63 e0       	ldi	r22, 0x03	; 3
     278:	83 e0       	ldi	r24, 0x03	; 3
     27a:	0e 94 ed 05 	call	0xbda	; 0xbda <DIO_enuSetPinDirection>
	DIO_enuSetPinVal(DIO_u8PORTD, DIO_u8PIN3, DIO_u8PULL_UP);
     27e:	41 e0       	ldi	r20, 0x01	; 1
     280:	63 e0       	ldi	r22, 0x03	; 3
     282:	83 e0       	ldi	r24, 0x03	; 3
     284:	0e 94 5f 06 	call	0xcbe	; 0xcbe <DIO_enuSetPinVal>
	
	LCD_enuInit();
     288:	0e 94 47 02 	call	0x48e	; 0x48e <LCD_enuInit>
	Seven_Segment_enuInit(SEV_SEG_AstrSEGConfig);
     28c:	80 e6       	ldi	r24, 0x60	; 96
     28e:	90 e0       	ldi	r25, 0x00	; 0
     290:	0e 94 46 03 	call	0x68c	; 0x68c <Seven_Segment_enuInit>
	LCD_enuSendCommand(LCD_DisplayOn_CursorOff_NoBlinking);
     294:	8c e0       	ldi	r24, 0x0C	; 12
     296:	0e 94 b2 02 	call	0x564	; 0x564 <LCD_enuSendCommand>
	EXTI_enuInit(EXTI_AStrEXTI_Config);
     29a:	86 e8       	ldi	r24, 0x86	; 134
     29c:	90 e0       	ldi	r25, 0x00	; 0
     29e:	0e 94 d1 06 	call	0xda2	; 0xda2 <EXTI_enuInit>
	EXTI_enuEnable(EXTI0);
     2a2:	80 e0       	ldi	r24, 0x00	; 0
     2a4:	0e 94 61 07 	call	0xec2	; 0xec2 <EXTI_enuEnable>
	EXTI_enuEnable(EXTI1);
     2a8:	81 e0       	ldi	r24, 0x01	; 1
     2aa:	0e 94 61 07 	call	0xec2	; 0xec2 <EXTI_enuEnable>
	EXTI_enuCallBackFunc(&Player1_Interrupt, NULL, EXTI0);
     2ae:	40 e0       	ldi	r20, 0x00	; 0
     2b0:	60 e0       	ldi	r22, 0x00	; 0
     2b2:	70 e0       	ldi	r23, 0x00	; 0
     2b4:	89 e4       	ldi	r24, 0x49	; 73
     2b6:	90 e0       	ldi	r25, 0x00	; 0
     2b8:	0e 94 85 07 	call	0xf0a	; 0xf0a <EXTI_enuCallBackFunc>
	EXTI_enuCallBackFunc(&Player2_Interrupt, NULL, EXTI1);
     2bc:	41 e0       	ldi	r20, 0x01	; 1
     2be:	60 e0       	ldi	r22, 0x00	; 0
     2c0:	70 e0       	ldi	r23, 0x00	; 0
     2c2:	8d e4       	ldi	r24, 0x4D	; 77
     2c4:	90 e0       	ldi	r25, 0x00	; 0
     2c6:	0e 94 85 07 	call	0xf0a	; 0xf0a <EXTI_enuCallBackFunc>
	
	LCD_enuWriteString("$PING PONG GAME$");
     2ca:	81 ef       	ldi	r24, 0xF1	; 241
     2cc:	90 e0       	ldi	r25, 0x00	; 0
     2ce:	0e 94 34 03 	call	0x668	; 0x668 <LCD_enuWriteString>
	Seven_Segment_enuDisplayNumber(0,0);
     2d2:	60 e0       	ldi	r22, 0x00	; 0
     2d4:	80 e0       	ldi	r24, 0x00	; 0
     2d6:	0e 94 51 04 	call	0x8a2	; 0x8a2 <Seven_Segment_enuDisplayNumber>
	Seven_Segment_enuDisplayNumber(1,0);
     2da:	60 e0       	ldi	r22, 0x00	; 0
     2dc:	81 e0       	ldi	r24, 0x01	; 1
     2de:	0e 94 51 04 	call	0x8a2	; 0x8a2 <Seven_Segment_enuDisplayNumber>
     2e2:	2f e7       	ldi	r18, 0x7F	; 127
     2e4:	8a e1       	ldi	r24, 0x1A	; 26
     2e6:	96 e0       	ldi	r25, 0x06	; 6
     2e8:	21 50       	subi	r18, 0x01	; 1
     2ea:	80 40       	sbci	r24, 0x00	; 0
     2ec:	90 40       	sbci	r25, 0x00	; 0
     2ee:	e1 f7       	brne	.-8      	; 0x2e8 <PING_PONG_GAME_enuInit+0x88>
     2f0:	00 c0       	rjmp	.+0      	; 0x2f2 <PING_PONG_GAME_enuInit+0x92>
     2f2:	00 00       	nop
	_delay_ms(2000);
	LCD_vidClearScreen();
     2f4:	0e 94 27 03 	call	0x64e	; 0x64e <LCD_vidClearScreen>
	
	GIE_enuGloable_Interrupt_Enable();
     2f8:	0e 94 23 08 	call	0x1046	; 0x1046 <GIE_enuGloable_Interrupt_Enable>
	
	return Local_enuErrorState;
}
     2fc:	81 e0       	ldi	r24, 0x01	; 1
     2fe:	08 95       	ret

00000300 <PING_PONG_GAME_enuStartPlaying>:

ES_t PING_PONG_GAME_enuStartPlaying(void)
{
	ES_t Local_enuErrorState = ES_NOK;
	
	while(PLAYER_1_RES < 3 && PLAYER_2_RES < 3)
     300:	08 c0       	rjmp	.+16     	; 0x312 <PING_PONG_GAME_enuStartPlaying+0x12>
	{
		MOVING_STATE = start;
     302:	10 92 40 01 	sts	0x0140, r1	; 0x800140 <__data_end>
		PING_PONG_Ball_Position = 0;
     306:	10 92 42 01 	sts	0x0142, r1	; 0x800142 <PING_PONG_Ball_Position>
		PING_PONG_vidRoundNum();
     30a:	0e 94 51 00 	call	0xa2	; 0xa2 <PING_PONG_vidRoundNum>
		PING_PONG_GAME_vidPlayRound();
     30e:	0e 94 b5 00 	call	0x16a	; 0x16a <PING_PONG_GAME_vidPlayRound>

ES_t PING_PONG_GAME_enuStartPlaying(void)
{
	ES_t Local_enuErrorState = ES_NOK;
	
	while(PLAYER_1_RES < 3 && PLAYER_2_RES < 3)
     312:	80 91 51 01 	lds	r24, 0x0151	; 0x800151 <PLAYER_1_RES>
     316:	83 30       	cpi	r24, 0x03	; 3
     318:	20 f4       	brcc	.+8      	; 0x322 <PING_PONG_GAME_enuStartPlaying+0x22>
     31a:	90 91 50 01 	lds	r25, 0x0150	; 0x800150 <PLAYER_2_RES>
     31e:	93 30       	cpi	r25, 0x03	; 3
     320:	80 f3       	brcs	.-32     	; 0x302 <PING_PONG_GAME_enuStartPlaying+0x2>
		PING_PONG_Ball_Position = 0;
		PING_PONG_vidRoundNum();
		PING_PONG_GAME_vidPlayRound();
	}
	
	if(PLAYER_1_RES > PLAYER_2_RES)
     322:	90 91 50 01 	lds	r25, 0x0150	; 0x800150 <PLAYER_2_RES>
     326:	98 17       	cp	r25, r24
     328:	58 f4       	brcc	.+22     	; 0x340 <PING_PONG_GAME_enuStartPlaying+0x40>
	{
		LCD_vidClearScreen();
     32a:	0e 94 27 03 	call	0x64e	; 0x64e <LCD_vidClearScreen>
		LCD_enuWriteString("     Winner     ");
     32e:	82 e0       	ldi	r24, 0x02	; 2
     330:	91 e0       	ldi	r25, 0x01	; 1
     332:	0e 94 34 03 	call	0x668	; 0x668 <LCD_enuWriteString>
		LCD_enuWriteString("   Player One   ");
     336:	83 e1       	ldi	r24, 0x13	; 19
     338:	91 e0       	ldi	r25, 0x01	; 1
     33a:	0e 94 34 03 	call	0x668	; 0x668 <LCD_enuWriteString>
     33e:	0a c0       	rjmp	.+20     	; 0x354 <PING_PONG_GAME_enuStartPlaying+0x54>
	}
	else
	{
		LCD_vidClearScreen();
     340:	0e 94 27 03 	call	0x64e	; 0x64e <LCD_vidClearScreen>
		LCD_enuWriteString("     Winner     ");
     344:	82 e0       	ldi	r24, 0x02	; 2
     346:	91 e0       	ldi	r25, 0x01	; 1
     348:	0e 94 34 03 	call	0x668	; 0x668 <LCD_enuWriteString>
		LCD_enuWriteString("   Player Two   ");
     34c:	84 e2       	ldi	r24, 0x24	; 36
     34e:	91 e0       	ldi	r25, 0x01	; 1
     350:	0e 94 34 03 	call	0x668	; 0x668 <LCD_enuWriteString>
	}
	
	return Local_enuErrorState;
}
     354:	81 e0       	ldi	r24, 0x01	; 1
     356:	08 95       	ret

00000358 <LCD_vidTrigger_LATCH>:
}

static void LCD_vidTrigger_LATCH(void)
{
	/* Enable EN --> it works at Rising Edge */
	DIO_enuSetPinVal(EN_PORT, EN_PIN, DIO_u8LOW);
     358:	40 e0       	ldi	r20, 0x00	; 0
     35a:	63 e0       	ldi	r22, 0x03	; 3
     35c:	81 e0       	ldi	r24, 0x01	; 1
     35e:	0e 94 5f 06 	call	0xcbe	; 0xcbe <DIO_enuSetPinVal>
     362:	83 ec       	ldi	r24, 0xC3	; 195
     364:	99 e0       	ldi	r25, 0x09	; 9
     366:	01 97       	sbiw	r24, 0x01	; 1
     368:	f1 f7       	brne	.-4      	; 0x366 <LCD_vidTrigger_LATCH+0xe>
     36a:	00 c0       	rjmp	.+0      	; 0x36c <LCD_vidTrigger_LATCH+0x14>
     36c:	00 00       	nop
	_delay_ms(10);
	DIO_enuSetPinVal(EN_PORT, EN_PIN, DIO_u8HIGH);
     36e:	41 e0       	ldi	r20, 0x01	; 1
     370:	63 e0       	ldi	r22, 0x03	; 3
     372:	81 e0       	ldi	r24, 0x01	; 1
     374:	0e 94 5f 06 	call	0xcbe	; 0xcbe <DIO_enuSetPinVal>
     378:	08 95       	ret

0000037a <LCD_enuLatch>:
 * @retval		: ES_t --> it returns the state of excution of this function
 * @note		: none
 ******************************************************************************
**/
static ES_t LCD_enuLatch(u8 Copy_u8Data)
{	
     37a:	cf 93       	push	r28
     37c:	df 93       	push	r29
     37e:	c8 2f       	mov	r28, r24
	ES_t Local_enuErrorState = ES_NOK;
	
	/* RW --> LOW to write */
	Local_enuErrorState = DIO_enuSetPinVal(RW_PORT, RW_PIN, DIO_u8LOW);
     380:	40 e0       	ldi	r20, 0x00	; 0
     382:	62 e0       	ldi	r22, 0x02	; 2
     384:	81 e0       	ldi	r24, 0x01	; 1
     386:	0e 94 5f 06 	call	0xcbe	; 0xcbe <DIO_enuSetPinVal>
	if(Local_enuErrorState != ES_OK)
     38a:	81 11       	cpse	r24, r1
     38c:	6f c0       	rjmp	.+222    	; 0x46c <__EEPROM_REGION_LENGTH__+0x6c>
		return Local_enuErrorState;
	
	/* Enable --> HIGH */
	Local_enuErrorState = DIO_enuSetPinVal(EN_PORT, EN_PIN, DIO_u8HIGH);
     38e:	41 e0       	ldi	r20, 0x01	; 1
     390:	63 e0       	ldi	r22, 0x03	; 3
     392:	81 e0       	ldi	r24, 0x01	; 1
     394:	0e 94 5f 06 	call	0xcbe	; 0xcbe <DIO_enuSetPinVal>
	if(Local_enuErrorState != ES_OK)
     398:	81 11       	cpse	r24, r1
     39a:	68 c0       	rjmp	.+208    	; 0x46c <__EEPROM_REGION_LENGTH__+0x6c>
		return Local_enuErrorState;
		
	#elif LCD_MODE == FOUR_BIT
	u8 Local_u8FourBitData = 0;
	/* Send Data from D7..D4 */
	Local_u8FourBitData = (Copy_u8Data & 0xF0);
     39c:	dc 2f       	mov	r29, r28
     39e:	d0 7f       	andi	r29, 0xF0	; 240
	Local_enuErrorState = DIO_enuSetPinVal(D7_PORT, D7_PIN, ((Local_u8FourBitData >> D7_POS) & MASK_BIT));
     3a0:	4d 2f       	mov	r20, r29
     3a2:	44 1f       	adc	r20, r20
     3a4:	44 27       	eor	r20, r20
     3a6:	44 1f       	adc	r20, r20
     3a8:	67 e0       	ldi	r22, 0x07	; 7
     3aa:	81 e0       	ldi	r24, 0x01	; 1
     3ac:	0e 94 5f 06 	call	0xcbe	; 0xcbe <DIO_enuSetPinVal>
	if(Local_enuErrorState != ES_OK)
     3b0:	81 11       	cpse	r24, r1
     3b2:	5c c0       	rjmp	.+184    	; 0x46c <__EEPROM_REGION_LENGTH__+0x6c>
		return Local_enuErrorState;
		
	Local_enuErrorState = DIO_enuSetPinVal(D6_PORT, D6_PIN, ((Local_u8FourBitData >> D6_POS) & MASK_BIT));
     3b4:	d6 fb       	bst	r29, 6
     3b6:	44 27       	eor	r20, r20
     3b8:	40 f9       	bld	r20, 0
     3ba:	66 e0       	ldi	r22, 0x06	; 6
     3bc:	81 e0       	ldi	r24, 0x01	; 1
     3be:	0e 94 5f 06 	call	0xcbe	; 0xcbe <DIO_enuSetPinVal>
	if(Local_enuErrorState != ES_OK)
     3c2:	81 11       	cpse	r24, r1
     3c4:	53 c0       	rjmp	.+166    	; 0x46c <__EEPROM_REGION_LENGTH__+0x6c>
		return Local_enuErrorState;
		
	Local_enuErrorState = DIO_enuSetPinVal(D5_PORT, D5_PIN, ((Local_u8FourBitData >> D5_POS) & MASK_BIT));
     3c6:	d5 fb       	bst	r29, 5
     3c8:	44 27       	eor	r20, r20
     3ca:	40 f9       	bld	r20, 0
     3cc:	65 e0       	ldi	r22, 0x05	; 5
     3ce:	81 e0       	ldi	r24, 0x01	; 1
     3d0:	0e 94 5f 06 	call	0xcbe	; 0xcbe <DIO_enuSetPinVal>
	if(Local_enuErrorState != ES_OK)
     3d4:	81 11       	cpse	r24, r1
     3d6:	4a c0       	rjmp	.+148    	; 0x46c <__EEPROM_REGION_LENGTH__+0x6c>
		return Local_enuErrorState;
		
	Local_enuErrorState = DIO_enuSetPinVal(D4_PORT, D4_PIN, ((Local_u8FourBitData >> D4_POS) & MASK_BIT));
     3d8:	d4 fb       	bst	r29, 4
     3da:	44 27       	eor	r20, r20
     3dc:	40 f9       	bld	r20, 0
     3de:	64 e0       	ldi	r22, 0x04	; 4
     3e0:	81 e0       	ldi	r24, 0x01	; 1
     3e2:	0e 94 5f 06 	call	0xcbe	; 0xcbe <DIO_enuSetPinVal>
	if(Local_enuErrorState != ES_OK)
     3e6:	81 11       	cpse	r24, r1
     3e8:	41 c0       	rjmp	.+130    	; 0x46c <__EEPROM_REGION_LENGTH__+0x6c>
		return Local_enuErrorState;
	
	LCD_vidTrigger_LATCH();
     3ea:	0e 94 ac 01 	call	0x358	; 0x358 <LCD_vidTrigger_LATCH>
     3ee:	89 ef       	ldi	r24, 0xF9	; 249
     3f0:	90 e0       	ldi	r25, 0x00	; 0
     3f2:	01 97       	sbiw	r24, 0x01	; 1
     3f4:	f1 f7       	brne	.-4      	; 0x3f2 <LCD_enuLatch+0x78>
     3f6:	00 c0       	rjmp	.+0      	; 0x3f8 <LCD_enuLatch+0x7e>
     3f8:	00 00       	nop
	_delay_ms(1);
	
	/* Send Data from D3..D0 */
	Local_u8FourBitData = (Copy_u8Data << FOUR_BIT);
     3fa:	c2 95       	swap	r28
     3fc:	c0 7f       	andi	r28, 0xF0	; 240
	Local_enuErrorState = DIO_enuSetPinVal(D7_PORT, D7_PIN, ((Local_u8FourBitData >> D7_POS) & MASK_BIT));
     3fe:	4c 2f       	mov	r20, r28
     400:	44 1f       	adc	r20, r20
     402:	44 27       	eor	r20, r20
     404:	44 1f       	adc	r20, r20
     406:	67 e0       	ldi	r22, 0x07	; 7
     408:	81 e0       	ldi	r24, 0x01	; 1
     40a:	0e 94 5f 06 	call	0xcbe	; 0xcbe <DIO_enuSetPinVal>
	if(Local_enuErrorState != ES_OK)
     40e:	81 11       	cpse	r24, r1
     410:	2d c0       	rjmp	.+90     	; 0x46c <__EEPROM_REGION_LENGTH__+0x6c>
		return Local_enuErrorState;
		
	Local_enuErrorState = DIO_enuSetPinVal(D6_PORT, D6_PIN, ((Local_u8FourBitData >> D6_POS) & MASK_BIT));
     412:	c6 fb       	bst	r28, 6
     414:	44 27       	eor	r20, r20
     416:	40 f9       	bld	r20, 0
     418:	66 e0       	ldi	r22, 0x06	; 6
     41a:	81 e0       	ldi	r24, 0x01	; 1
     41c:	0e 94 5f 06 	call	0xcbe	; 0xcbe <DIO_enuSetPinVal>
	if(Local_enuErrorState != ES_OK)
     420:	81 11       	cpse	r24, r1
     422:	24 c0       	rjmp	.+72     	; 0x46c <__EEPROM_REGION_LENGTH__+0x6c>
		return Local_enuErrorState;
		
	Local_enuErrorState = DIO_enuSetPinVal(D5_PORT, D5_PIN, ((Local_u8FourBitData >> D5_POS) & MASK_BIT));
     424:	c5 fb       	bst	r28, 5
     426:	44 27       	eor	r20, r20
     428:	40 f9       	bld	r20, 0
     42a:	65 e0       	ldi	r22, 0x05	; 5
     42c:	81 e0       	ldi	r24, 0x01	; 1
     42e:	0e 94 5f 06 	call	0xcbe	; 0xcbe <DIO_enuSetPinVal>
	if(Local_enuErrorState != ES_OK)
     432:	81 11       	cpse	r24, r1
     434:	1b c0       	rjmp	.+54     	; 0x46c <__EEPROM_REGION_LENGTH__+0x6c>
		return Local_enuErrorState;
		
	Local_enuErrorState = DIO_enuSetPinVal(D4_PORT, D4_PIN, ((Local_u8FourBitData >> D4_POS) & MASK_BIT));
     436:	c4 fb       	bst	r28, 4
     438:	44 27       	eor	r20, r20
     43a:	40 f9       	bld	r20, 0
     43c:	64 e0       	ldi	r22, 0x04	; 4
     43e:	81 e0       	ldi	r24, 0x01	; 1
     440:	0e 94 5f 06 	call	0xcbe	; 0xcbe <DIO_enuSetPinVal>
	if(Local_enuErrorState != ES_OK)
     444:	81 11       	cpse	r24, r1
     446:	12 c0       	rjmp	.+36     	; 0x46c <__EEPROM_REGION_LENGTH__+0x6c>
     448:	89 ef       	ldi	r24, 0xF9	; 249
     44a:	90 e0       	ldi	r25, 0x00	; 0
     44c:	01 97       	sbiw	r24, 0x01	; 1
     44e:	f1 f7       	brne	.-4      	; 0x44c <__EEPROM_REGION_LENGTH__+0x4c>
     450:	00 c0       	rjmp	.+0      	; 0x452 <__EEPROM_REGION_LENGTH__+0x52>
     452:	00 00       	nop
	#else
	#error "LCD Mode has a wrong configuration"
	#endif
	
	_delay_ms(1);
	DIO_enuSetPinVal(EN_PORT, EN_PIN, DIO_u8LOW);
     454:	40 e0       	ldi	r20, 0x00	; 0
     456:	63 e0       	ldi	r22, 0x03	; 3
     458:	81 e0       	ldi	r24, 0x01	; 1
     45a:	0e 94 5f 06 	call	0xcbe	; 0xcbe <DIO_enuSetPinVal>
     45e:	89 ef       	ldi	r24, 0xF9	; 249
     460:	90 e0       	ldi	r25, 0x00	; 0
     462:	01 97       	sbiw	r24, 0x01	; 1
     464:	f1 f7       	brne	.-4      	; 0x462 <__EEPROM_REGION_LENGTH__+0x62>
     466:	00 c0       	rjmp	.+0      	; 0x468 <__EEPROM_REGION_LENGTH__+0x68>
     468:	00 00       	nop
	_delay_ms(1);
	
	Local_enuErrorState = ES_OK;
	return Local_enuErrorState;
     46a:	80 e0       	ldi	r24, 0x00	; 0
}
     46c:	df 91       	pop	r29
     46e:	cf 91       	pop	r28
     470:	08 95       	ret

00000472 <LCD_inlenuSendCommand>:
 * @retval		: ES_t --> it returns the state of excution of this function
 * @note		: none
 ******************************************************************************
**/
static inline ES_t LCD_inlenuSendCommand(u8 Copy_u8Command)
{
     472:	cf 93       	push	r28
     474:	c8 2f       	mov	r28, r24
	ES_t Local_enuErrorState = ES_NOK;
		
	/* RS --> LOW to write Command */
	Local_enuErrorState = DIO_enuSetPinVal(RS_PORT, RS_PIN, DIO_u8LOW);
     476:	40 e0       	ldi	r20, 0x00	; 0
     478:	61 e0       	ldi	r22, 0x01	; 1
     47a:	81 e0       	ldi	r24, 0x01	; 1
     47c:	0e 94 5f 06 	call	0xcbe	; 0xcbe <DIO_enuSetPinVal>
	if(Local_enuErrorState != ES_OK)
     480:	81 11       	cpse	r24, r1
     482:	03 c0       	rjmp	.+6      	; 0x48a <LCD_inlenuSendCommand+0x18>
		return Local_enuErrorState;	

	/* Call Latch Function */
	Local_enuErrorState = LCD_enuLatch(Copy_u8Command);
     484:	8c 2f       	mov	r24, r28
     486:	0e 94 bd 01 	call	0x37a	; 0x37a <LCD_enuLatch>
	if(Local_enuErrorState != ES_OK)
		return Local_enuErrorState;
	
	Local_enuErrorState = ES_OK;	
	return Local_enuErrorState;
}
     48a:	cf 91       	pop	r28
     48c:	08 95       	ret

0000048e <LCD_enuInit>:
ES_t LCD_enuInit(void)
{
	ES_t Local_enuErrorState = ES_NOK;
	
	/* Set Control Pins as output */
	Local_enuErrorState = DIO_enuSetPinDirection(RS_PORT, RS_PIN, DIO_u8OUTPUT);
     48e:	41 e0       	ldi	r20, 0x01	; 1
     490:	61 e0       	ldi	r22, 0x01	; 1
     492:	81 e0       	ldi	r24, 0x01	; 1
     494:	0e 94 ed 05 	call	0xbda	; 0xbda <DIO_enuSetPinDirection>
	if(Local_enuErrorState != ES_OK)
     498:	81 11       	cpse	r24, r1
     49a:	63 c0       	rjmp	.+198    	; 0x562 <LCD_enuInit+0xd4>
		return Local_enuErrorState;
	
	Local_enuErrorState = DIO_enuSetPinDirection(RW_PORT, RW_PIN, DIO_u8OUTPUT);
     49c:	41 e0       	ldi	r20, 0x01	; 1
     49e:	62 e0       	ldi	r22, 0x02	; 2
     4a0:	81 e0       	ldi	r24, 0x01	; 1
     4a2:	0e 94 ed 05 	call	0xbda	; 0xbda <DIO_enuSetPinDirection>
	if(Local_enuErrorState != ES_OK)
     4a6:	81 11       	cpse	r24, r1
     4a8:	5c c0       	rjmp	.+184    	; 0x562 <LCD_enuInit+0xd4>
		return Local_enuErrorState;
		
	Local_enuErrorState = DIO_enuSetPinDirection(EN_PORT, EN_PIN, DIO_u8OUTPUT);
     4aa:	41 e0       	ldi	r20, 0x01	; 1
     4ac:	63 e0       	ldi	r22, 0x03	; 3
     4ae:	81 e0       	ldi	r24, 0x01	; 1
     4b0:	0e 94 ed 05 	call	0xbda	; 0xbda <DIO_enuSetPinDirection>
	if(Local_enuErrorState != ES_OK)
     4b4:	81 11       	cpse	r24, r1
     4b6:	55 c0       	rjmp	.+170    	; 0x562 <LCD_enuInit+0xd4>
		return Local_enuErrorState;
	
	/* Set Data Pins as output */
	Local_enuErrorState = DIO_enuSetPinDirection(D7_PORT, D7_PIN, DIO_u8OUTPUT);
     4b8:	41 e0       	ldi	r20, 0x01	; 1
     4ba:	67 e0       	ldi	r22, 0x07	; 7
     4bc:	81 e0       	ldi	r24, 0x01	; 1
     4be:	0e 94 ed 05 	call	0xbda	; 0xbda <DIO_enuSetPinDirection>
	if(Local_enuErrorState != ES_OK)
     4c2:	81 11       	cpse	r24, r1
     4c4:	4e c0       	rjmp	.+156    	; 0x562 <LCD_enuInit+0xd4>
		return Local_enuErrorState;
		
	Local_enuErrorState = DIO_enuSetPinDirection(D6_PORT, D6_PIN, DIO_u8OUTPUT);
     4c6:	41 e0       	ldi	r20, 0x01	; 1
     4c8:	66 e0       	ldi	r22, 0x06	; 6
     4ca:	81 e0       	ldi	r24, 0x01	; 1
     4cc:	0e 94 ed 05 	call	0xbda	; 0xbda <DIO_enuSetPinDirection>
	if(Local_enuErrorState != ES_OK)
     4d0:	81 11       	cpse	r24, r1
     4d2:	47 c0       	rjmp	.+142    	; 0x562 <LCD_enuInit+0xd4>
		return Local_enuErrorState;
		
	Local_enuErrorState = DIO_enuSetPinDirection(D5_PORT, D5_PIN, DIO_u8OUTPUT);
     4d4:	41 e0       	ldi	r20, 0x01	; 1
     4d6:	65 e0       	ldi	r22, 0x05	; 5
     4d8:	81 e0       	ldi	r24, 0x01	; 1
     4da:	0e 94 ed 05 	call	0xbda	; 0xbda <DIO_enuSetPinDirection>
	if(Local_enuErrorState != ES_OK)
     4de:	81 11       	cpse	r24, r1
     4e0:	40 c0       	rjmp	.+128    	; 0x562 <LCD_enuInit+0xd4>
		return Local_enuErrorState;
	Local_enuErrorState = DIO_enuSetPinDirection(D4_PORT, D4_PIN, DIO_u8OUTPUT);
     4e2:	41 e0       	ldi	r20, 0x01	; 1
     4e4:	64 e0       	ldi	r22, 0x04	; 4
     4e6:	81 e0       	ldi	r24, 0x01	; 1
     4e8:	0e 94 ed 05 	call	0xbda	; 0xbda <DIO_enuSetPinDirection>
	if(Local_enuErrorState != ES_OK)
     4ec:	81 11       	cpse	r24, r1
     4ee:	39 c0       	rjmp	.+114    	; 0x562 <LCD_enuInit+0xd4>
     4f0:	8d e2       	ldi	r24, 0x2D	; 45
     4f2:	92 e2       	ldi	r25, 0x22	; 34
     4f4:	01 97       	sbiw	r24, 0x01	; 1
     4f6:	f1 f7       	brne	.-4      	; 0x4f4 <LCD_enuInit+0x66>
     4f8:	00 c0       	rjmp	.+0      	; 0x4fa <LCD_enuInit+0x6c>
     4fa:	00 00       	nop
		return Local_enuErrorState;
	_delay_ms(1);
	
	#elif LCD_MODE == FOUR_BIT
	/* Function Set */
	LCD_inlenuSendCommand(0x33);
     4fc:	83 e3       	ldi	r24, 0x33	; 51
     4fe:	0e 94 39 02 	call	0x472	; 0x472 <LCD_inlenuSendCommand>
	LCD_inlenuSendCommand(0x32);
     502:	82 e3       	ldi	r24, 0x32	; 50
     504:	0e 94 39 02 	call	0x472	; 0x472 <LCD_inlenuSendCommand>
	
	Local_enuErrorState = LCD_inlenuSendCommand(LCD_4Bit_TwoLine_5_7CharFont);
     508:	88 e2       	ldi	r24, 0x28	; 40
     50a:	0e 94 39 02 	call	0x472	; 0x472 <LCD_inlenuSendCommand>
	if(Local_enuErrorState != ES_OK)
     50e:	81 11       	cpse	r24, r1
     510:	28 c0       	rjmp	.+80     	; 0x562 <LCD_enuInit+0xd4>
     512:	89 ef       	ldi	r24, 0xF9	; 249
     514:	90 e0       	ldi	r25, 0x00	; 0
     516:	01 97       	sbiw	r24, 0x01	; 1
     518:	f1 f7       	brne	.-4      	; 0x516 <LCD_enuInit+0x88>
     51a:	00 c0       	rjmp	.+0      	; 0x51c <LCD_enuInit+0x8e>
     51c:	00 00       	nop
	#else
	#error "LCD Mode has a wrong configuration"
	#endif
	
	/* Display ON/OFF Control */
	Local_enuErrorState = LCD_inlenuSendCommand(LCD_DisplayOn_CursorOn_Blinking);
     51e:	8f e0       	ldi	r24, 0x0F	; 15
     520:	0e 94 39 02 	call	0x472	; 0x472 <LCD_inlenuSendCommand>
	if(Local_enuErrorState != ES_OK)
     524:	81 11       	cpse	r24, r1
     526:	1d c0       	rjmp	.+58     	; 0x562 <LCD_enuInit+0xd4>
     528:	89 ef       	ldi	r24, 0xF9	; 249
     52a:	90 e0       	ldi	r25, 0x00	; 0
     52c:	01 97       	sbiw	r24, 0x01	; 1
     52e:	f1 f7       	brne	.-4      	; 0x52c <LCD_enuInit+0x9e>
     530:	00 c0       	rjmp	.+0      	; 0x532 <LCD_enuInit+0xa4>
     532:	00 00       	nop
		return Local_enuErrorState;
	_delay_ms(1);
	
	/* Display Clear */
	Local_enuErrorState = LCD_inlenuSendCommand(LCD_Clear_Display);
     534:	81 e0       	ldi	r24, 0x01	; 1
     536:	0e 94 39 02 	call	0x472	; 0x472 <LCD_inlenuSendCommand>
	if(Local_enuErrorState != ES_OK)
     53a:	81 11       	cpse	r24, r1
     53c:	12 c0       	rjmp	.+36     	; 0x562 <LCD_enuInit+0xd4>
     53e:	83 ef       	ldi	r24, 0xF3	; 243
     540:	91 e0       	ldi	r25, 0x01	; 1
     542:	01 97       	sbiw	r24, 0x01	; 1
     544:	f1 f7       	brne	.-4      	; 0x542 <LCD_enuInit+0xb4>
     546:	00 c0       	rjmp	.+0      	; 0x548 <LCD_enuInit+0xba>
     548:	00 00       	nop
		return Local_enuErrorState;
	_delay_ms(2);
	
	/* Entry Mode Set */
	Local_enuErrorState = LCD_inlenuSendCommand(LCD_Increase_NoShift);
     54a:	86 e0       	ldi	r24, 0x06	; 6
     54c:	0e 94 39 02 	call	0x472	; 0x472 <LCD_inlenuSendCommand>
	if(Local_enuErrorState != ES_OK)
     550:	81 11       	cpse	r24, r1
     552:	07 c0       	rjmp	.+14     	; 0x562 <LCD_enuInit+0xd4>
     554:	89 ef       	ldi	r24, 0xF9	; 249
     556:	90 e0       	ldi	r25, 0x00	; 0
     558:	01 97       	sbiw	r24, 0x01	; 1
     55a:	f1 f7       	brne	.-4      	; 0x558 <LCD_enuInit+0xca>
     55c:	00 c0       	rjmp	.+0      	; 0x55e <LCD_enuInit+0xd0>
     55e:	00 00       	nop
		return Local_enuErrorState;
	_delay_ms(1);
	
	Local_enuErrorState = ES_OK;
	return Local_enuErrorState;
     560:	80 e0       	ldi	r24, 0x00	; 0
}
     562:	08 95       	ret

00000564 <LCD_enuSendCommand>:
 * @retval		: ES_t --> it returns the state of excution of this function
 * @note		: none
 ******************************************************************************
**/
ES_t LCD_enuSendCommand(u8 Copy_u8Command)
{
     564:	cf 93       	push	r28
     566:	c8 2f       	mov	r28, r24
	ES_t Local_enuErrorState = ES_NOK;
	
	/* RS --> LOW to write Command */
	Local_enuErrorState = DIO_enuSetPinVal(RS_PORT, RS_PIN, DIO_u8LOW);
     568:	40 e0       	ldi	r20, 0x00	; 0
     56a:	61 e0       	ldi	r22, 0x01	; 1
     56c:	81 e0       	ldi	r24, 0x01	; 1
     56e:	0e 94 5f 06 	call	0xcbe	; 0xcbe <DIO_enuSetPinVal>
	if(Local_enuErrorState != ES_OK)
     572:	81 11       	cpse	r24, r1
     574:	03 c0       	rjmp	.+6      	; 0x57c <LCD_enuSendCommand+0x18>
		return Local_enuErrorState;
	
	/* Call Latch Function */
	Local_enuErrorState = LCD_enuLatch(Copy_u8Command);
     576:	8c 2f       	mov	r24, r28
     578:	0e 94 bd 01 	call	0x37a	; 0x37a <LCD_enuLatch>
	if(Local_enuErrorState != ES_OK)
		return Local_enuErrorState;
	
	Local_enuErrorState = ES_OK;
	return Local_enuErrorState;
}
     57c:	cf 91       	pop	r28
     57e:	08 95       	ret

00000580 <LCD_enuGoToPosition>:
 * @retval		: ES_t --> it returns the state of excution of this function
 * @note		: none
 ******************************************************************************
**/
ES_t LCD_enuGoToPosition(u8 Copy_u8Line, u8 Copy_u8Position)
{
     580:	cf 93       	push	r28
     582:	df 93       	push	r29
	ES_t Local_enuErrorState = ES_NOK;
	
	if(Copy_u8Position >= 0 && Copy_u8Position < 16)
     584:	60 31       	cpi	r22, 0x10	; 16
     586:	40 f5       	brcc	.+80     	; 0x5d8 <LCD_enuGoToPosition+0x58>
     588:	c6 2f       	mov	r28, r22
	{
		if(Copy_u8Line == LCD_FIRST_LINE)
     58a:	81 11       	cpse	r24, r1
     58c:	11 c0       	rjmp	.+34     	; 0x5b0 <LCD_enuGoToPosition+0x30>
		{
			Local_enuErrorState = LCD_inlenuSendCommand(LCD_BEGIN_AT_FIRST_ROW + Copy_u8Position);
     58e:	d0 e8       	ldi	r29, 0x80	; 128
     590:	d6 0f       	add	r29, r22
static inline ES_t LCD_inlenuSendCommand(u8 Copy_u8Command)
{
	ES_t Local_enuErrorState = ES_NOK;
		
	/* RS --> LOW to write Command */
	Local_enuErrorState = DIO_enuSetPinVal(RS_PORT, RS_PIN, DIO_u8LOW);
     592:	40 e0       	ldi	r20, 0x00	; 0
     594:	61 e0       	ldi	r22, 0x01	; 1
     596:	81 e0       	ldi	r24, 0x01	; 1
     598:	0e 94 5f 06 	call	0xcbe	; 0xcbe <DIO_enuSetPinVal>
	if(Local_enuErrorState != ES_OK)
     59c:	81 11       	cpse	r24, r1
     59e:	03 c0       	rjmp	.+6      	; 0x5a6 <LCD_enuGoToPosition+0x26>
		return Local_enuErrorState;	

	/* Call Latch Function */
	Local_enuErrorState = LCD_enuLatch(Copy_u8Command);
     5a0:	8d 2f       	mov	r24, r29
     5a2:	0e 94 bd 01 	call	0x37a	; 0x37a <LCD_enuLatch>
	if(Copy_u8Position >= 0 && Copy_u8Position < 16)
	{
		if(Copy_u8Line == LCD_FIRST_LINE)
		{
			Local_enuErrorState = LCD_inlenuSendCommand(LCD_BEGIN_AT_FIRST_ROW + Copy_u8Position);
			if(Local_enuErrorState != ES_OK)
     5a6:	81 11       	cpse	r24, r1
     5a8:	1a c0       	rjmp	.+52     	; 0x5de <LCD_enuGoToPosition+0x5e>
				return Local_enuErrorState;
				
			LCD_u8PosCounter = Copy_u8Position;
     5aa:	c0 93 43 01 	sts	0x0143, r28	; 0x800143 <LCD_u8PosCounter>
     5ae:	17 c0       	rjmp	.+46     	; 0x5de <LCD_enuGoToPosition+0x5e>
		}
		else if(Copy_u8Line == LCD_SECOND_LINE)
     5b0:	81 30       	cpi	r24, 0x01	; 1
     5b2:	a1 f4       	brne	.+40     	; 0x5dc <LCD_enuGoToPosition+0x5c>
		{
			Local_enuErrorState = LCD_inlenuSendCommand(LCD_BEGIN_AT_SECOND_ROW + Copy_u8Position);
     5b4:	d0 ec       	ldi	r29, 0xC0	; 192
     5b6:	d6 0f       	add	r29, r22
static inline ES_t LCD_inlenuSendCommand(u8 Copy_u8Command)
{
	ES_t Local_enuErrorState = ES_NOK;
		
	/* RS --> LOW to write Command */
	Local_enuErrorState = DIO_enuSetPinVal(RS_PORT, RS_PIN, DIO_u8LOW);
     5b8:	40 e0       	ldi	r20, 0x00	; 0
     5ba:	61 e0       	ldi	r22, 0x01	; 1
     5bc:	0e 94 5f 06 	call	0xcbe	; 0xcbe <DIO_enuSetPinVal>
	if(Local_enuErrorState != ES_OK)
     5c0:	81 11       	cpse	r24, r1
     5c2:	03 c0       	rjmp	.+6      	; 0x5ca <LCD_enuGoToPosition+0x4a>
		return Local_enuErrorState;	

	/* Call Latch Function */
	Local_enuErrorState = LCD_enuLatch(Copy_u8Command);
     5c4:	8d 2f       	mov	r24, r29
     5c6:	0e 94 bd 01 	call	0x37a	; 0x37a <LCD_enuLatch>
			LCD_u8PosCounter = Copy_u8Position;
		}
		else if(Copy_u8Line == LCD_SECOND_LINE)
		{
			Local_enuErrorState = LCD_inlenuSendCommand(LCD_BEGIN_AT_SECOND_ROW + Copy_u8Position);
			if(Local_enuErrorState != ES_OK)
     5ca:	81 11       	cpse	r24, r1
     5cc:	08 c0       	rjmp	.+16     	; 0x5de <LCD_enuGoToPosition+0x5e>
				return Local_enuErrorState;
				
			LCD_u8PosCounter = Copy_u8Position + 16;
     5ce:	60 e1       	ldi	r22, 0x10	; 16
     5d0:	6c 0f       	add	r22, r28
     5d2:	60 93 43 01 	sts	0x0143, r22	; 0x800143 <LCD_u8PosCounter>
     5d6:	03 c0       	rjmp	.+6      	; 0x5de <LCD_enuGoToPosition+0x5e>
		}
	}
	
	Local_enuErrorState = ES_OK;
	return Local_enuErrorState;
     5d8:	80 e0       	ldi	r24, 0x00	; 0
     5da:	01 c0       	rjmp	.+2      	; 0x5de <LCD_enuGoToPosition+0x5e>
     5dc:	80 e0       	ldi	r24, 0x00	; 0
}
     5de:	df 91       	pop	r29
     5e0:	cf 91       	pop	r28
     5e2:	08 95       	ret

000005e4 <LCD_vidCheckPosition>:
 * @note		: none
 ******************************************************************************
**/
static void LCD_vidCheckPosition(void)
{
	if(LCD_u8PosCounter == 16)
     5e4:	80 91 43 01 	lds	r24, 0x0143	; 0x800143 <LCD_u8PosCounter>
     5e8:	80 31       	cpi	r24, 0x10	; 16
     5ea:	51 f4       	brne	.+20     	; 0x600 <LCD_vidCheckPosition+0x1c>
	{
		LCD_enuGoToPosition(LCD_SECOND_LINE, 0);
     5ec:	60 e0       	ldi	r22, 0x00	; 0
     5ee:	81 e0       	ldi	r24, 0x01	; 1
     5f0:	0e 94 c0 02 	call	0x580	; 0x580 <LCD_enuGoToPosition>
		LCD_u8PosCounter++;
     5f4:	80 91 43 01 	lds	r24, 0x0143	; 0x800143 <LCD_u8PosCounter>
     5f8:	8f 5f       	subi	r24, 0xFF	; 255
     5fa:	80 93 43 01 	sts	0x0143, r24	; 0x800143 <LCD_u8PosCounter>
     5fe:	08 95       	ret
	}
	else if(LCD_u8PosCounter == 32)
     600:	80 32       	cpi	r24, 0x20	; 32
     602:	89 f4       	brne	.+34     	; 0x626 <LCD_vidCheckPosition+0x42>
static inline ES_t LCD_inlenuSendCommand(u8 Copy_u8Command)
{
	ES_t Local_enuErrorState = ES_NOK;
		
	/* RS --> LOW to write Command */
	Local_enuErrorState = DIO_enuSetPinVal(RS_PORT, RS_PIN, DIO_u8LOW);
     604:	40 e0       	ldi	r20, 0x00	; 0
     606:	61 e0       	ldi	r22, 0x01	; 1
     608:	81 e0       	ldi	r24, 0x01	; 1
     60a:	0e 94 5f 06 	call	0xcbe	; 0xcbe <DIO_enuSetPinVal>
	if(Local_enuErrorState != ES_OK)
     60e:	81 11       	cpse	r24, r1
     610:	03 c0       	rjmp	.+6      	; 0x618 <LCD_vidCheckPosition+0x34>
		return Local_enuErrorState;	

	/* Call Latch Function */
	Local_enuErrorState = LCD_enuLatch(Copy_u8Command);
     612:	81 e0       	ldi	r24, 0x01	; 1
     614:	0e 94 bd 01 	call	0x37a	; 0x37a <LCD_enuLatch>
		LCD_u8PosCounter++;
	}
	else if(LCD_u8PosCounter == 32)
	{
		LCD_inlenuSendCommand(LCD_Clear_Display);
		LCD_enuGoToPosition(LCD_FIRST_LINE, 0);
     618:	60 e0       	ldi	r22, 0x00	; 0
     61a:	80 e0       	ldi	r24, 0x00	; 0
     61c:	0e 94 c0 02 	call	0x580	; 0x580 <LCD_enuGoToPosition>
		LCD_u8PosCounter = 0;
     620:	10 92 43 01 	sts	0x0143, r1	; 0x800143 <LCD_u8PosCounter>
     624:	08 95       	ret
	}
	else
	{
		LCD_u8PosCounter++;
     626:	8f 5f       	subi	r24, 0xFF	; 255
     628:	80 93 43 01 	sts	0x0143, r24	; 0x800143 <LCD_u8PosCounter>
     62c:	08 95       	ret

0000062e <LCD_enuDisplayChar>:
 * @retval		: ES_t --> it returns the state of excution of this function
 * @note		: none
 ******************************************************************************
**/
ES_t LCD_enuDisplayChar(u8 Copy_u8Data)
{
     62e:	cf 93       	push	r28
     630:	c8 2f       	mov	r28, r24
	ES_t Local_enuErrorState = ES_NOK;
	
	/* Check position in case of we send data */
	LCD_vidCheckPosition();
     632:	0e 94 f2 02 	call	0x5e4	; 0x5e4 <LCD_vidCheckPosition>
	
	/* RS --> High to write Data */
	Local_enuErrorState = DIO_enuSetPinVal(RS_PORT, RS_PIN, DIO_u8HIGH);
     636:	41 e0       	ldi	r20, 0x01	; 1
     638:	61 e0       	ldi	r22, 0x01	; 1
     63a:	81 e0       	ldi	r24, 0x01	; 1
     63c:	0e 94 5f 06 	call	0xcbe	; 0xcbe <DIO_enuSetPinVal>
	if(Local_enuErrorState != ES_OK)
     640:	81 11       	cpse	r24, r1
     642:	03 c0       	rjmp	.+6      	; 0x64a <LCD_enuDisplayChar+0x1c>
		return Local_enuErrorState;
	
	/* Call Latch Function */
	Local_enuErrorState = LCD_enuLatch(Copy_u8Data);
     644:	8c 2f       	mov	r24, r28
     646:	0e 94 bd 01 	call	0x37a	; 0x37a <LCD_enuLatch>
	if(Local_enuErrorState != ES_OK)
		return Local_enuErrorState;
	
	Local_enuErrorState = ES_OK;
	return Local_enuErrorState;
}
     64a:	cf 91       	pop	r28
     64c:	08 95       	ret

0000064e <LCD_vidClearScreen>:
static inline ES_t LCD_inlenuSendCommand(u8 Copy_u8Command)
{
	ES_t Local_enuErrorState = ES_NOK;
		
	/* RS --> LOW to write Command */
	Local_enuErrorState = DIO_enuSetPinVal(RS_PORT, RS_PIN, DIO_u8LOW);
     64e:	40 e0       	ldi	r20, 0x00	; 0
     650:	61 e0       	ldi	r22, 0x01	; 1
     652:	81 e0       	ldi	r24, 0x01	; 1
     654:	0e 94 5f 06 	call	0xcbe	; 0xcbe <DIO_enuSetPinVal>
	if(Local_enuErrorState != ES_OK)
     658:	81 11       	cpse	r24, r1
     65a:	03 c0       	rjmp	.+6      	; 0x662 <LCD_vidClearScreen+0x14>
		return Local_enuErrorState;	

	/* Call Latch Function */
	Local_enuErrorState = LCD_enuLatch(Copy_u8Command);
     65c:	81 e0       	ldi	r24, 0x01	; 1
     65e:	0e 94 bd 01 	call	0x37a	; 0x37a <LCD_enuLatch>
 ******************************************************************************
**/
void LCD_vidClearScreen(void)
{
	LCD_inlenuSendCommand(LCD_Clear_Display);
	LCD_u8PosCounter = 0;
     662:	10 92 43 01 	sts	0x0143, r1	; 0x800143 <LCD_u8PosCounter>
     666:	08 95       	ret

00000668 <LCD_enuWriteString>:
 * @retval		: ES_t --> it returns the state of excution of this function
 * @note		: none
 ******************************************************************************
**/
ES_t LCD_enuWriteString(u8 *Copy_pu8Str)
{
     668:	cf 93       	push	r28
     66a:	df 93       	push	r29
     66c:	ec 01       	movw	r28, r24
	ES_t Local_enuErrorState = ES_NOK;
	
	if(Copy_pu8Str != NULL)
     66e:	89 2b       	or	r24, r25
     670:	39 f4       	brne	.+14     	; 0x680 <LCD_enuWriteString+0x18>
		}
		Local_enuErrorState = ES_OK;
	}
	else
	{
		return ES_NULL_POINTER;
     672:	82 e0       	ldi	r24, 0x02	; 2
     674:	08 c0       	rjmp	.+16     	; 0x686 <LCD_enuWriteString+0x1e>
	
	if(Copy_pu8Str != NULL)
	{
		while(*Copy_pu8Str != '\0')
		{
			Local_enuErrorState = LCD_enuDisplayChar(*Copy_pu8Str);
     676:	0e 94 17 03 	call	0x62e	; 0x62e <LCD_enuDisplayChar>
			if(Local_enuErrorState != ES_OK)
     67a:	81 11       	cpse	r24, r1
     67c:	04 c0       	rjmp	.+8      	; 0x686 <LCD_enuWriteString+0x1e>
				return Local_enuErrorState;
			Copy_pu8Str++;
     67e:	21 96       	adiw	r28, 0x01	; 1
{
	ES_t Local_enuErrorState = ES_NOK;
	
	if(Copy_pu8Str != NULL)
	{
		while(*Copy_pu8Str != '\0')
     680:	88 81       	ld	r24, Y
     682:	81 11       	cpse	r24, r1
     684:	f8 cf       	rjmp	.-16     	; 0x676 <LCD_enuWriteString+0xe>
		return ES_NULL_POINTER;
	}
	
	Local_enuErrorState = ES_OK;
	return Local_enuErrorState;
}
     686:	df 91       	pop	r29
     688:	cf 91       	pop	r28
     68a:	08 95       	ret

0000068c <Seven_Segment_enuInit>:
#include "Seven_Segment_priv.h"

extern SEG_t SEV_SEG_AstrSEGConfig[SEG_NUM];

ES_t Seven_Segment_enuInit(SEG_t *Copy_pAstrSEG_Config)
{
     68c:	3f 92       	push	r3
     68e:	4f 92       	push	r4
     690:	5f 92       	push	r5
     692:	6f 92       	push	r6
     694:	7f 92       	push	r7
     696:	8f 92       	push	r8
     698:	9f 92       	push	r9
     69a:	af 92       	push	r10
     69c:	bf 92       	push	r11
     69e:	cf 92       	push	r12
     6a0:	df 92       	push	r13
     6a2:	ef 92       	push	r14
     6a4:	ff 92       	push	r15
     6a6:	0f 93       	push	r16
     6a8:	1f 93       	push	r17
     6aa:	cf 93       	push	r28
     6ac:	df 93       	push	r29
	u8 Local_u8Iterator = 0;
	
	u8 Local_u8Iterator_Error = 0;
	u32 Local_u32CheckError = 0;
	
	if(Copy_pAstrSEG_Config != NULL)
     6ae:	00 97       	sbiw	r24, 0x00	; 0
     6b0:	09 f0       	breq	.+2      	; 0x6b4 <Seven_Segment_enuInit+0x28>
     6b2:	bd c0       	rjmp	.+378    	; 0x82e <__DATA_REGION_LENGTH__+0x2e>
			Local_enuErrorState = ES_OK;
		}
	}
	else
	{
		Local_enuErrorState = ES_NULL_POINTER;
     6b4:	82 e0       	ldi	r24, 0x02	; 2
     6b6:	e3 c0       	rjmp	.+454    	; 0x87e <__stack+0x1f>
	if(Copy_pAstrSEG_Config != NULL)
	{
		for(Local_u8Iterator = 0; Local_u8Iterator < SEG_NUM; Local_u8Iterator++)
		{
			Local_u8Iterator_Error = 0;
			Local_u32CheckError |= (DIO_enuSetPinDirection(Copy_pAstrSEG_Config[Local_u8Iterator].SEG_APORT, Copy_pAstrSEG_Config[Local_u8Iterator].SEG_APIN, DIO_u8OUTPUT) << Local_u8Iterator_Error);
     6b8:	e8 01       	movw	r28, r16
     6ba:	23 e1       	ldi	r18, 0x13	; 19
     6bc:	32 9e       	mul	r3, r18
     6be:	c0 0d       	add	r28, r0
     6c0:	d1 1d       	adc	r29, r1
     6c2:	11 24       	eor	r1, r1
     6c4:	41 e0       	ldi	r20, 0x01	; 1
     6c6:	69 81       	ldd	r22, Y+1	; 0x01
     6c8:	88 81       	ld	r24, Y
     6ca:	0e 94 ed 05 	call	0xbda	; 0xbda <DIO_enuSetPinDirection>
     6ce:	c8 2a       	or	r12, r24
			Local_u32CheckError |= (DIO_enuSetPinDirection(Copy_pAstrSEG_Config[Local_u8Iterator].SEG_BPORT, Copy_pAstrSEG_Config[Local_u8Iterator].SEG_BPIN, DIO_u8OUTPUT) << (Local_u8Iterator_Error += ERROR_STATE_SIZE));
     6d0:	41 e0       	ldi	r20, 0x01	; 1
     6d2:	6b 81       	ldd	r22, Y+3	; 0x03
     6d4:	8a 81       	ldd	r24, Y+2	; 0x02
     6d6:	0e 94 ed 05 	call	0xbda	; 0xbda <DIO_enuSetPinDirection>
     6da:	90 e0       	ldi	r25, 0x00	; 0
     6dc:	88 0f       	add	r24, r24
     6de:	99 1f       	adc	r25, r25
     6e0:	88 0f       	add	r24, r24
     6e2:	99 1f       	adc	r25, r25
     6e4:	88 0f       	add	r24, r24
     6e6:	99 1f       	adc	r25, r25
     6e8:	09 2e       	mov	r0, r25
     6ea:	00 0c       	add	r0, r0
     6ec:	aa 0b       	sbc	r26, r26
     6ee:	bb 0b       	sbc	r27, r27
     6f0:	c8 2a       	or	r12, r24
     6f2:	d9 2a       	or	r13, r25
     6f4:	ea 2a       	or	r14, r26
     6f6:	fb 2a       	or	r15, r27
			Local_u32CheckError |= (DIO_enuSetPinDirection(Copy_pAstrSEG_Config[Local_u8Iterator].SEG_CPORT, Copy_pAstrSEG_Config[Local_u8Iterator].SEG_CPIN, DIO_u8OUTPUT) << (Local_u8Iterator_Error += ERROR_STATE_SIZE));
     6f8:	41 e0       	ldi	r20, 0x01	; 1
     6fa:	6d 81       	ldd	r22, Y+5	; 0x05
     6fc:	8c 81       	ldd	r24, Y+4	; 0x04
     6fe:	0e 94 ed 05 	call	0xbda	; 0xbda <DIO_enuSetPinDirection>
     702:	20 e4       	ldi	r18, 0x40	; 64
     704:	82 9f       	mul	r24, r18
     706:	c0 01       	movw	r24, r0
     708:	11 24       	eor	r1, r1
     70a:	2c 01       	movw	r4, r24
     70c:	99 0f       	add	r25, r25
     70e:	66 08       	sbc	r6, r6
     710:	77 08       	sbc	r7, r7
     712:	c4 28       	or	r12, r4
     714:	d5 28       	or	r13, r5
     716:	e6 28       	or	r14, r6
     718:	f7 28       	or	r15, r7
			Local_u32CheckError |= (DIO_enuSetPinDirection(Copy_pAstrSEG_Config[Local_u8Iterator].SEG_DPORT, Copy_pAstrSEG_Config[Local_u8Iterator].SEG_DPIN, DIO_u8OUTPUT) << (Local_u8Iterator_Error += ERROR_STATE_SIZE));
     71a:	41 e0       	ldi	r20, 0x01	; 1
     71c:	6f 81       	ldd	r22, Y+7	; 0x07
     71e:	8e 81       	ldd	r24, Y+6	; 0x06
     720:	0e 94 ed 05 	call	0xbda	; 0xbda <DIO_enuSetPinDirection>
     724:	48 2e       	mov	r4, r24
     726:	51 2c       	mov	r5, r1
     728:	54 2c       	mov	r5, r4
     72a:	44 24       	eor	r4, r4
     72c:	55 0c       	add	r5, r5
     72e:	05 2c       	mov	r0, r5
     730:	00 0c       	add	r0, r0
     732:	66 08       	sbc	r6, r6
     734:	77 08       	sbc	r7, r7
     736:	c4 28       	or	r12, r4
     738:	d5 28       	or	r13, r5
     73a:	e6 28       	or	r14, r6
     73c:	f7 28       	or	r15, r7
			Local_u32CheckError |= (DIO_enuSetPinDirection(Copy_pAstrSEG_Config[Local_u8Iterator].SEG_EPORT, Copy_pAstrSEG_Config[Local_u8Iterator].SEG_EPIN, DIO_u8OUTPUT) << (Local_u8Iterator_Error += ERROR_STATE_SIZE));
     73e:	41 e0       	ldi	r20, 0x01	; 1
     740:	69 85       	ldd	r22, Y+9	; 0x09
     742:	88 85       	ldd	r24, Y+8	; 0x08
     744:	0e 94 ed 05 	call	0xbda	; 0xbda <DIO_enuSetPinDirection>
     748:	48 2e       	mov	r4, r24
     74a:	51 2c       	mov	r5, r1
     74c:	54 2c       	mov	r5, r4
     74e:	44 24       	eor	r4, r4
     750:	55 0c       	add	r5, r5
     752:	55 0c       	add	r5, r5
     754:	55 0c       	add	r5, r5
     756:	55 0c       	add	r5, r5
     758:	05 2c       	mov	r0, r5
     75a:	00 0c       	add	r0, r0
     75c:	66 08       	sbc	r6, r6
     75e:	77 08       	sbc	r7, r7
     760:	4c 28       	or	r4, r12
     762:	5d 28       	or	r5, r13
     764:	6e 28       	or	r6, r14
     766:	7f 28       	or	r7, r15
			Local_u32CheckError |= (DIO_enuSetPinDirection(Copy_pAstrSEG_Config[Local_u8Iterator].SEG_FPORT, Copy_pAstrSEG_Config[Local_u8Iterator].SEG_FPIN, DIO_u8OUTPUT) << (Local_u8Iterator_Error += ERROR_STATE_SIZE));
     768:	41 e0       	ldi	r20, 0x01	; 1
     76a:	6b 85       	ldd	r22, Y+11	; 0x0b
     76c:	8a 85       	ldd	r24, Y+10	; 0x0a
     76e:	0e 94 ed 05 	call	0xbda	; 0xbda <DIO_enuSetPinDirection>
     772:	c8 2e       	mov	r12, r24
     774:	d1 2c       	mov	r13, r1
     776:	dd 24       	eor	r13, r13
     778:	c6 94       	lsr	r12
     77a:	d7 94       	ror	r13
     77c:	cc 24       	eor	r12, r12
     77e:	0d 2c       	mov	r0, r13
     780:	00 0c       	add	r0, r0
     782:	ee 08       	sbc	r14, r14
     784:	ff 08       	sbc	r15, r15
     786:	46 01       	movw	r8, r12
     788:	57 01       	movw	r10, r14
     78a:	84 28       	or	r8, r4
     78c:	95 28       	or	r9, r5
     78e:	a6 28       	or	r10, r6
     790:	b7 28       	or	r11, r7
			Local_u32CheckError |= (DIO_enuSetPinDirection(Copy_pAstrSEG_Config[Local_u8Iterator].SEG_GPORT, Copy_pAstrSEG_Config[Local_u8Iterator].SEG_GPIN, DIO_u8OUTPUT) << (Local_u8Iterator_Error += ERROR_STATE_SIZE));
     792:	41 e0       	ldi	r20, 0x01	; 1
     794:	6d 85       	ldd	r22, Y+13	; 0x0d
     796:	8c 85       	ldd	r24, Y+12	; 0x0c
     798:	0e 94 ed 05 	call	0xbda	; 0xbda <DIO_enuSetPinDirection>
     79c:	c8 2e       	mov	r12, r24
     79e:	d1 2c       	mov	r13, r1
     7a0:	dd 24       	eor	r13, r13
     7a2:	cc 24       	eor	r12, r12
     7a4:	0d 2c       	mov	r0, r13
     7a6:	00 0c       	add	r0, r0
     7a8:	ee 08       	sbc	r14, r14
     7aa:	ff 08       	sbc	r15, r15
     7ac:	c8 28       	or	r12, r8
     7ae:	d9 28       	or	r13, r9
     7b0:	ea 28       	or	r14, r10
     7b2:	fb 28       	or	r15, r11
			
			if(Copy_pAstrSEG_Config[Local_u8Iterator].SEG_CMN_PORT != NOT_CONNECTED && Copy_pAstrSEG_Config[Local_u8Iterator].SEG_CMN_PIN != NOT_CONNECTED)
     7b4:	8e 85       	ldd	r24, Y+14	; 0x0e
     7b6:	8a 30       	cpi	r24, 0x0A	; 10
     7b8:	b1 f0       	breq	.+44     	; 0x7e6 <Seven_Segment_enuInit+0x15a>
     7ba:	6f 85       	ldd	r22, Y+15	; 0x0f
     7bc:	6a 30       	cpi	r22, 0x0A	; 10
     7be:	c1 f0       	breq	.+48     	; 0x7f0 <Seven_Segment_enuInit+0x164>
			{
				Local_u32CheckError |= (DIO_enuSetPinDirection(Copy_pAstrSEG_Config[Local_u8Iterator].SEG_CMN_PORT, Copy_pAstrSEG_Config[Local_u8Iterator].SEG_CMN_PIN, DIO_u8OUTPUT) << (Local_u8Iterator_Error += ERROR_STATE_SIZE));
     7c0:	41 e0       	ldi	r20, 0x01	; 1
     7c2:	0e 94 ed 05 	call	0xbda	; 0xbda <DIO_enuSetPinDirection>
     7c6:	90 e0       	ldi	r25, 0x00	; 0
     7c8:	99 27       	eor	r25, r25
     7ca:	88 27       	eor	r24, r24
     7cc:	09 2e       	mov	r0, r25
     7ce:	00 0c       	add	r0, r0
     7d0:	aa 0b       	sbc	r26, r26
     7d2:	bb 0b       	sbc	r27, r27
     7d4:	c8 2a       	or	r12, r24
     7d6:	d9 2a       	or	r13, r25
     7d8:	ea 2a       	or	r14, r26
     7da:	fb 2a       	or	r15, r27
     7dc:	0f 2e       	mov	r0, r31
     7de:	f5 e1       	ldi	r31, 0x15	; 21
     7e0:	bf 2e       	mov	r11, r31
     7e2:	f0 2d       	mov	r31, r0
     7e4:	09 c0       	rjmp	.+18     	; 0x7f8 <Seven_Segment_enuInit+0x16c>
			Local_u32CheckError |= (DIO_enuSetPinDirection(Copy_pAstrSEG_Config[Local_u8Iterator].SEG_BPORT, Copy_pAstrSEG_Config[Local_u8Iterator].SEG_BPIN, DIO_u8OUTPUT) << (Local_u8Iterator_Error += ERROR_STATE_SIZE));
			Local_u32CheckError |= (DIO_enuSetPinDirection(Copy_pAstrSEG_Config[Local_u8Iterator].SEG_CPORT, Copy_pAstrSEG_Config[Local_u8Iterator].SEG_CPIN, DIO_u8OUTPUT) << (Local_u8Iterator_Error += ERROR_STATE_SIZE));
			Local_u32CheckError |= (DIO_enuSetPinDirection(Copy_pAstrSEG_Config[Local_u8Iterator].SEG_DPORT, Copy_pAstrSEG_Config[Local_u8Iterator].SEG_DPIN, DIO_u8OUTPUT) << (Local_u8Iterator_Error += ERROR_STATE_SIZE));
			Local_u32CheckError |= (DIO_enuSetPinDirection(Copy_pAstrSEG_Config[Local_u8Iterator].SEG_EPORT, Copy_pAstrSEG_Config[Local_u8Iterator].SEG_EPIN, DIO_u8OUTPUT) << (Local_u8Iterator_Error += ERROR_STATE_SIZE));
			Local_u32CheckError |= (DIO_enuSetPinDirection(Copy_pAstrSEG_Config[Local_u8Iterator].SEG_FPORT, Copy_pAstrSEG_Config[Local_u8Iterator].SEG_FPIN, DIO_u8OUTPUT) << (Local_u8Iterator_Error += ERROR_STATE_SIZE));
			Local_u32CheckError |= (DIO_enuSetPinDirection(Copy_pAstrSEG_Config[Local_u8Iterator].SEG_GPORT, Copy_pAstrSEG_Config[Local_u8Iterator].SEG_GPIN, DIO_u8OUTPUT) << (Local_u8Iterator_Error += ERROR_STATE_SIZE));
     7e6:	0f 2e       	mov	r0, r31
     7e8:	f2 e1       	ldi	r31, 0x12	; 18
     7ea:	bf 2e       	mov	r11, r31
     7ec:	f0 2d       	mov	r31, r0
     7ee:	04 c0       	rjmp	.+8      	; 0x7f8 <Seven_Segment_enuInit+0x16c>
     7f0:	0f 2e       	mov	r0, r31
     7f2:	f2 e1       	ldi	r31, 0x12	; 18
     7f4:	bf 2e       	mov	r11, r31
     7f6:	f0 2d       	mov	r31, r0
			if(Copy_pAstrSEG_Config[Local_u8Iterator].SEG_CMN_PORT != NOT_CONNECTED && Copy_pAstrSEG_Config[Local_u8Iterator].SEG_CMN_PIN != NOT_CONNECTED)
			{
				Local_u32CheckError |= (DIO_enuSetPinDirection(Copy_pAstrSEG_Config[Local_u8Iterator].SEG_CMN_PORT, Copy_pAstrSEG_Config[Local_u8Iterator].SEG_CMN_PIN, DIO_u8OUTPUT) << (Local_u8Iterator_Error += ERROR_STATE_SIZE));
			}
			
			if(Copy_pAstrSEG_Config[Local_u8Iterator].SEG_DOT_PORT != NOT_CONNECTED && Copy_pAstrSEG_Config[Local_u8Iterator].SEG_DOT_PIN != NOT_CONNECTED)
     7f8:	88 89       	ldd	r24, Y+16	; 0x10
     7fa:	8a 30       	cpi	r24, 0x0A	; 10
     7fc:	b1 f0       	breq	.+44     	; 0x82a <__DATA_REGION_LENGTH__+0x2a>
     7fe:	69 89       	ldd	r22, Y+17	; 0x11
     800:	6a 30       	cpi	r22, 0x0A	; 10
     802:	99 f0       	breq	.+38     	; 0x82a <__DATA_REGION_LENGTH__+0x2a>
			{
				Local_u32CheckError |= (DIO_enuSetPinDirection(Copy_pAstrSEG_Config[Local_u8Iterator].SEG_DOT_PORT, Copy_pAstrSEG_Config[Local_u8Iterator].SEG_DOT_PIN, DIO_u8OUTPUT) << (Local_u8Iterator_Error += ERROR_STATE_SIZE));
     804:	41 e0       	ldi	r20, 0x01	; 1
     806:	0e 94 ed 05 	call	0xbda	; 0xbda <DIO_enuSetPinDirection>
     80a:	23 e0       	ldi	r18, 0x03	; 3
     80c:	2b 0d       	add	r18, r11
     80e:	90 e0       	ldi	r25, 0x00	; 0
     810:	02 c0       	rjmp	.+4      	; 0x816 <__DATA_REGION_LENGTH__+0x16>
     812:	88 0f       	add	r24, r24
     814:	99 1f       	adc	r25, r25
     816:	2a 95       	dec	r18
     818:	e2 f7       	brpl	.-8      	; 0x812 <__DATA_REGION_LENGTH__+0x12>
     81a:	09 2e       	mov	r0, r25
     81c:	00 0c       	add	r0, r0
     81e:	aa 0b       	sbc	r26, r26
     820:	bb 0b       	sbc	r27, r27
     822:	c8 2a       	or	r12, r24
     824:	d9 2a       	or	r13, r25
     826:	ea 2a       	or	r14, r26
     828:	fb 2a       	or	r15, r27
	u8 Local_u8Iterator_Error = 0;
	u32 Local_u32CheckError = 0;
	
	if(Copy_pAstrSEG_Config != NULL)
	{
		for(Local_u8Iterator = 0; Local_u8Iterator < SEG_NUM; Local_u8Iterator++)
     82a:	33 94       	inc	r3
     82c:	05 c0       	rjmp	.+10     	; 0x838 <__DATA_REGION_LENGTH__+0x38>
     82e:	8c 01       	movw	r16, r24
     830:	c1 2c       	mov	r12, r1
     832:	d1 2c       	mov	r13, r1
     834:	76 01       	movw	r14, r12
     836:	31 2c       	mov	r3, r1
     838:	81 e0       	ldi	r24, 0x01	; 1
     83a:	83 15       	cp	r24, r3
     83c:	08 f0       	brcs	.+2      	; 0x840 <__DATA_REGION_LENGTH__+0x40>
     83e:	3c cf       	rjmp	.-392    	; 0x6b8 <Seven_Segment_enuInit+0x2c>
     840:	90 e0       	ldi	r25, 0x00	; 0
     842:	19 c0       	rjmp	.+50     	; 0x876 <__stack+0x17>
		
		for(Local_u8Iterator = 0; Local_u8Iterator < SEG_NUM; Local_u8Iterator++)
		{
			for(Local_u8Iterator_Error = 0; Local_u8Iterator_Error < sizeof(Local_u32CheckError)*8; Local_u8Iterator_Error += ERROR_STATE_SIZE)
			{
				if(((Local_u32CheckError >> Local_u8Iterator_Error) & ERROR_STATE_MASK) != ES_OK)
     844:	b7 01       	movw	r22, r14
     846:	a6 01       	movw	r20, r12
     848:	08 2e       	mov	r0, r24
     84a:	04 c0       	rjmp	.+8      	; 0x854 <__DATA_REGION_LENGTH__+0x54>
     84c:	76 95       	lsr	r23
     84e:	67 95       	ror	r22
     850:	57 95       	ror	r21
     852:	47 95       	ror	r20
     854:	0a 94       	dec	r0
     856:	d2 f7       	brpl	.-12     	; 0x84c <__DATA_REGION_LENGTH__+0x4c>
     858:	47 70       	andi	r20, 0x07	; 7
     85a:	55 27       	eor	r21, r21
     85c:	66 27       	eor	r22, r22
     85e:	77 27       	eor	r23, r23
     860:	45 2b       	or	r20, r21
     862:	46 2b       	or	r20, r22
     864:	47 2b       	or	r20, r23
     866:	51 f4       	brne	.+20     	; 0x87c <__stack+0x1d>
			}
		}
		
		for(Local_u8Iterator = 0; Local_u8Iterator < SEG_NUM; Local_u8Iterator++)
		{
			for(Local_u8Iterator_Error = 0; Local_u8Iterator_Error < sizeof(Local_u32CheckError)*8; Local_u8Iterator_Error += ERROR_STATE_SIZE)
     868:	8d 5f       	subi	r24, 0xFD	; 253
     86a:	01 c0       	rjmp	.+2      	; 0x86e <__stack+0xf>
     86c:	80 e0       	ldi	r24, 0x00	; 0
     86e:	80 32       	cpi	r24, 0x20	; 32
     870:	48 f3       	brcs	.-46     	; 0x844 <__DATA_REGION_LENGTH__+0x44>
			{
				Local_u32CheckError |= (DIO_enuSetPinDirection(Copy_pAstrSEG_Config[Local_u8Iterator].SEG_DOT_PORT, Copy_pAstrSEG_Config[Local_u8Iterator].SEG_DOT_PIN, DIO_u8OUTPUT) << (Local_u8Iterator_Error += ERROR_STATE_SIZE));
			}
		}
		
		for(Local_u8Iterator = 0; Local_u8Iterator < SEG_NUM; Local_u8Iterator++)
     872:	9f 5f       	subi	r25, 0xFF	; 255
				if(((Local_u32CheckError >> Local_u8Iterator_Error) & ERROR_STATE_MASK) != ES_OK)
				{
					return ES_NOK;
				}
			}
			Local_enuErrorState = ES_OK;
     874:	80 e0       	ldi	r24, 0x00	; 0
			{
				Local_u32CheckError |= (DIO_enuSetPinDirection(Copy_pAstrSEG_Config[Local_u8Iterator].SEG_DOT_PORT, Copy_pAstrSEG_Config[Local_u8Iterator].SEG_DOT_PIN, DIO_u8OUTPUT) << (Local_u8Iterator_Error += ERROR_STATE_SIZE));
			}
		}
		
		for(Local_u8Iterator = 0; Local_u8Iterator < SEG_NUM; Local_u8Iterator++)
     876:	92 30       	cpi	r25, 0x02	; 2
     878:	c8 f3       	brcs	.-14     	; 0x86c <__stack+0xd>
     87a:	01 c0       	rjmp	.+2      	; 0x87e <__stack+0x1f>
		{
			for(Local_u8Iterator_Error = 0; Local_u8Iterator_Error < sizeof(Local_u32CheckError)*8; Local_u8Iterator_Error += ERROR_STATE_SIZE)
			{
				if(((Local_u32CheckError >> Local_u8Iterator_Error) & ERROR_STATE_MASK) != ES_OK)
				{
					return ES_NOK;
     87c:	81 e0       	ldi	r24, 0x01	; 1
	{
		Local_enuErrorState = ES_NULL_POINTER;
	}
	
	return Local_enuErrorState;
}
     87e:	df 91       	pop	r29
     880:	cf 91       	pop	r28
     882:	1f 91       	pop	r17
     884:	0f 91       	pop	r16
     886:	ff 90       	pop	r15
     888:	ef 90       	pop	r14
     88a:	df 90       	pop	r13
     88c:	cf 90       	pop	r12
     88e:	bf 90       	pop	r11
     890:	af 90       	pop	r10
     892:	9f 90       	pop	r9
     894:	8f 90       	pop	r8
     896:	7f 90       	pop	r7
     898:	6f 90       	pop	r6
     89a:	5f 90       	pop	r5
     89c:	4f 90       	pop	r4
     89e:	3f 90       	pop	r3
     8a0:	08 95       	ret

000008a2 <Seven_Segment_enuDisplayNumber>:

ES_t Seven_Segment_enuDisplayNumber(u8 Copy_SEG_ID, u8 Copy_u8Number)
{
     8a2:	4f 92       	push	r4
     8a4:	5f 92       	push	r5
     8a6:	6f 92       	push	r6
     8a8:	7f 92       	push	r7
     8aa:	8f 92       	push	r8
     8ac:	9f 92       	push	r9
     8ae:	af 92       	push	r10
     8b0:	bf 92       	push	r11
     8b2:	cf 92       	push	r12
     8b4:	df 92       	push	r13
     8b6:	ef 92       	push	r14
     8b8:	ff 92       	push	r15
     8ba:	0f 93       	push	r16
     8bc:	1f 93       	push	r17
     8be:	cf 93       	push	r28
     8c0:	df 93       	push	r29
	ES_t Local_enuErrorState = ES_NOK;
	
	u8 Local_u8Iterator_Error = 0;
	u32 Local_u32CheckError = 0;
	 
	if(Copy_SEG_ID < SEG_NUM && Copy_u8Number < 10)
     8c2:	82 30       	cpi	r24, 0x02	; 2
     8c4:	08 f0       	brcs	.+2      	; 0x8c8 <Seven_Segment_enuDisplayNumber+0x26>
     8c6:	6e c1       	rjmp	.+732    	; 0xba4 <Seven_Segment_enuDisplayNumber+0x302>
     8c8:	6a 30       	cpi	r22, 0x0A	; 10
     8ca:	08 f0       	brcs	.+2      	; 0x8ce <Seven_Segment_enuDisplayNumber+0x2c>
     8cc:	6d c1       	rjmp	.+730    	; 0xba8 <Seven_Segment_enuDisplayNumber+0x306>
	{
		if(SEV_SEG_AstrSEGConfig[Copy_SEG_ID].SEG_TYPE == COMMON_ANODE)
     8ce:	90 e0       	ldi	r25, 0x00	; 0
     8d0:	23 e1       	ldi	r18, 0x13	; 19
     8d2:	28 9f       	mul	r18, r24
     8d4:	f0 01       	movw	r30, r0
     8d6:	29 9f       	mul	r18, r25
     8d8:	f0 0d       	add	r31, r0
     8da:	11 24       	eor	r1, r1
     8dc:	e0 5a       	subi	r30, 0xA0	; 160
     8de:	ff 4f       	sbci	r31, 0xFF	; 255
     8e0:	22 89       	ldd	r18, Z+18	; 0x12
     8e2:	25 30       	cpi	r18, 0x05	; 5
     8e4:	09 f0       	breq	.+2      	; 0x8e8 <Seven_Segment_enuDisplayNumber+0x46>
     8e6:	a8 c0       	rjmp	.+336    	; 0xa38 <Seven_Segment_enuDisplayNumber+0x196>
		{
			Local_u32CheckError |= (DIO_enuSetPinVal(SEV_SEG_AstrSEGConfig[Copy_SEG_ID].SEG_APORT, SEV_SEG_AstrSEGConfig[Copy_SEG_ID].SEG_APIN, !((SEGCth_Numbers[Copy_u8Number] >> APIN_POS) & MASK_BIT)) << Local_u8Iterator_Error);
     8e8:	e6 2f       	mov	r30, r22
     8ea:	f0 e0       	ldi	r31, 0x00	; 0
     8ec:	eb 5c       	subi	r30, 0xCB	; 203
     8ee:	fe 4f       	sbci	r31, 0xFE	; 254
     8f0:	70 80       	ld	r7, Z
     8f2:	11 e0       	ldi	r17, 0x01	; 1
     8f4:	47 2d       	mov	r20, r7
     8f6:	41 27       	eor	r20, r17
     8f8:	41 70       	andi	r20, 0x01	; 1
     8fa:	23 e1       	ldi	r18, 0x13	; 19
     8fc:	28 9f       	mul	r18, r24
     8fe:	e0 01       	movw	r28, r0
     900:	29 9f       	mul	r18, r25
     902:	d0 0d       	add	r29, r0
     904:	11 24       	eor	r1, r1
     906:	c0 5a       	subi	r28, 0xA0	; 160
     908:	df 4f       	sbci	r29, 0xFF	; 255
     90a:	69 81       	ldd	r22, Y+1	; 0x01
     90c:	88 81       	ld	r24, Y
     90e:	0e 94 5f 06 	call	0xcbe	; 0xcbe <DIO_enuSetPinVal>
     912:	88 2e       	mov	r8, r24
     914:	91 2c       	mov	r9, r1
     916:	a1 2c       	mov	r10, r1
     918:	b1 2c       	mov	r11, r1
			Local_u32CheckError |= (DIO_enuSetPinVal(SEV_SEG_AstrSEGConfig[Copy_SEG_ID].SEG_BPORT, SEV_SEG_AstrSEGConfig[Copy_SEG_ID].SEG_BPIN, !((SEGCth_Numbers[Copy_u8Number] >> BPIN_POS) & MASK_BIT)) << (Local_u8Iterator_Error += ERROR_STATE_SIZE));
     91a:	47 2d       	mov	r20, r7
     91c:	46 95       	lsr	r20
     91e:	41 27       	eor	r20, r17
     920:	41 70       	andi	r20, 0x01	; 1
     922:	6b 81       	ldd	r22, Y+3	; 0x03
     924:	8a 81       	ldd	r24, Y+2	; 0x02
     926:	0e 94 5f 06 	call	0xcbe	; 0xcbe <DIO_enuSetPinVal>
     92a:	c8 2e       	mov	r12, r24
     92c:	d1 2c       	mov	r13, r1
     92e:	cc 0c       	add	r12, r12
     930:	dd 1c       	adc	r13, r13
     932:	cc 0c       	add	r12, r12
     934:	dd 1c       	adc	r13, r13
     936:	cc 0c       	add	r12, r12
     938:	dd 1c       	adc	r13, r13
     93a:	0d 2c       	mov	r0, r13
     93c:	00 0c       	add	r0, r0
     93e:	ee 08       	sbc	r14, r14
     940:	ff 08       	sbc	r15, r15
     942:	c8 28       	or	r12, r8
     944:	d9 28       	or	r13, r9
     946:	ea 28       	or	r14, r10
     948:	fb 28       	or	r15, r11
			Local_u32CheckError |= (DIO_enuSetPinVal(SEV_SEG_AstrSEGConfig[Copy_SEG_ID].SEG_CPORT, SEV_SEG_AstrSEGConfig[Copy_SEG_ID].SEG_CPIN, !((SEGCth_Numbers[Copy_u8Number] >> CPIN_POS) & MASK_BIT)) << (Local_u8Iterator_Error += ERROR_STATE_SIZE));
     94a:	47 2d       	mov	r20, r7
     94c:	46 95       	lsr	r20
     94e:	46 95       	lsr	r20
     950:	41 27       	eor	r20, r17
     952:	41 70       	andi	r20, 0x01	; 1
     954:	6d 81       	ldd	r22, Y+5	; 0x05
     956:	8c 81       	ldd	r24, Y+4	; 0x04
     958:	0e 94 5f 06 	call	0xcbe	; 0xcbe <DIO_enuSetPinVal>
     95c:	20 e4       	ldi	r18, 0x40	; 64
     95e:	82 9f       	mul	r24, r18
     960:	c0 01       	movw	r24, r0
     962:	11 24       	eor	r1, r1
     964:	09 2e       	mov	r0, r25
     966:	00 0c       	add	r0, r0
     968:	aa 0b       	sbc	r26, r26
     96a:	bb 0b       	sbc	r27, r27
     96c:	c8 2a       	or	r12, r24
     96e:	d9 2a       	or	r13, r25
     970:	ea 2a       	or	r14, r26
     972:	fb 2a       	or	r15, r27
			Local_u32CheckError |= (DIO_enuSetPinVal(SEV_SEG_AstrSEGConfig[Copy_SEG_ID].SEG_DPORT, SEV_SEG_AstrSEGConfig[Copy_SEG_ID].SEG_DPIN, !((SEGCth_Numbers[Copy_u8Number] >> DPIN_POS) & MASK_BIT)) << (Local_u8Iterator_Error += ERROR_STATE_SIZE));
     974:	47 2d       	mov	r20, r7
     976:	46 95       	lsr	r20
     978:	46 95       	lsr	r20
     97a:	46 95       	lsr	r20
     97c:	41 27       	eor	r20, r17
     97e:	41 70       	andi	r20, 0x01	; 1
     980:	6f 81       	ldd	r22, Y+7	; 0x07
     982:	8e 81       	ldd	r24, Y+6	; 0x06
     984:	0e 94 5f 06 	call	0xcbe	; 0xcbe <DIO_enuSetPinVal>
     988:	88 2e       	mov	r8, r24
     98a:	91 2c       	mov	r9, r1
     98c:	98 2c       	mov	r9, r8
     98e:	88 24       	eor	r8, r8
     990:	99 0c       	add	r9, r9
     992:	09 2c       	mov	r0, r9
     994:	00 0c       	add	r0, r0
     996:	aa 08       	sbc	r10, r10
     998:	bb 08       	sbc	r11, r11
     99a:	c8 28       	or	r12, r8
     99c:	d9 28       	or	r13, r9
     99e:	ea 28       	or	r14, r10
     9a0:	fb 28       	or	r15, r11
			Local_u32CheckError |= (DIO_enuSetPinVal(SEV_SEG_AstrSEGConfig[Copy_SEG_ID].SEG_EPORT, SEV_SEG_AstrSEGConfig[Copy_SEG_ID].SEG_EPIN, !((SEGCth_Numbers[Copy_u8Number] >> EPIN_POS) & MASK_BIT)) << (Local_u8Iterator_Error += ERROR_STATE_SIZE));
     9a2:	47 2d       	mov	r20, r7
     9a4:	42 95       	swap	r20
     9a6:	4f 70       	andi	r20, 0x0F	; 15
     9a8:	41 27       	eor	r20, r17
     9aa:	41 70       	andi	r20, 0x01	; 1
     9ac:	69 85       	ldd	r22, Y+9	; 0x09
     9ae:	88 85       	ldd	r24, Y+8	; 0x08
     9b0:	0e 94 5f 06 	call	0xcbe	; 0xcbe <DIO_enuSetPinVal>
     9b4:	88 2e       	mov	r8, r24
     9b6:	91 2c       	mov	r9, r1
     9b8:	98 2c       	mov	r9, r8
     9ba:	88 24       	eor	r8, r8
     9bc:	99 0c       	add	r9, r9
     9be:	99 0c       	add	r9, r9
     9c0:	99 0c       	add	r9, r9
     9c2:	99 0c       	add	r9, r9
     9c4:	c4 01       	movw	r24, r8
     9c6:	99 0c       	add	r9, r9
     9c8:	aa 0b       	sbc	r26, r26
     9ca:	bb 0b       	sbc	r27, r27
     9cc:	4c 01       	movw	r8, r24
     9ce:	5d 01       	movw	r10, r26
     9d0:	8c 28       	or	r8, r12
     9d2:	9d 28       	or	r9, r13
     9d4:	ae 28       	or	r10, r14
     9d6:	bf 28       	or	r11, r15
			Local_u32CheckError |= (DIO_enuSetPinVal(SEV_SEG_AstrSEGConfig[Copy_SEG_ID].SEG_FPORT, SEV_SEG_AstrSEGConfig[Copy_SEG_ID].SEG_FPIN, !((SEGCth_Numbers[Copy_u8Number] >> FPIN_POS) & MASK_BIT)) << (Local_u8Iterator_Error += ERROR_STATE_SIZE));
     9d8:	47 2d       	mov	r20, r7
     9da:	42 95       	swap	r20
     9dc:	46 95       	lsr	r20
     9de:	47 70       	andi	r20, 0x07	; 7
     9e0:	41 27       	eor	r20, r17
     9e2:	41 70       	andi	r20, 0x01	; 1
     9e4:	6b 85       	ldd	r22, Y+11	; 0x0b
     9e6:	8a 85       	ldd	r24, Y+10	; 0x0a
     9e8:	0e 94 5f 06 	call	0xcbe	; 0xcbe <DIO_enuSetPinVal>
     9ec:	c8 2e       	mov	r12, r24
     9ee:	d1 2c       	mov	r13, r1
     9f0:	dd 24       	eor	r13, r13
     9f2:	c6 94       	lsr	r12
     9f4:	d7 94       	ror	r13
     9f6:	cc 24       	eor	r12, r12
     9f8:	0d 2c       	mov	r0, r13
     9fa:	00 0c       	add	r0, r0
     9fc:	ee 08       	sbc	r14, r14
     9fe:	ff 08       	sbc	r15, r15
     a00:	c8 28       	or	r12, r8
     a02:	d9 28       	or	r13, r9
     a04:	ea 28       	or	r14, r10
     a06:	fb 28       	or	r15, r11
			Local_u32CheckError |= (DIO_enuSetPinVal(SEV_SEG_AstrSEGConfig[Copy_SEG_ID].SEG_GPORT, SEV_SEG_AstrSEGConfig[Copy_SEG_ID].SEG_GPIN, !((SEGCth_Numbers[Copy_u8Number] >> GPIN_POS) & MASK_BIT)) << (Local_u8Iterator_Error += ERROR_STATE_SIZE));
     a08:	47 2d       	mov	r20, r7
     a0a:	42 95       	swap	r20
     a0c:	46 95       	lsr	r20
     a0e:	46 95       	lsr	r20
     a10:	43 70       	andi	r20, 0x03	; 3
     a12:	41 27       	eor	r20, r17
     a14:	41 70       	andi	r20, 0x01	; 1
     a16:	6d 85       	ldd	r22, Y+13	; 0x0d
     a18:	8c 85       	ldd	r24, Y+12	; 0x0c
     a1a:	0e 94 5f 06 	call	0xcbe	; 0xcbe <DIO_enuSetPinVal>
     a1e:	08 2f       	mov	r16, r24
     a20:	10 e0       	ldi	r17, 0x00	; 0
     a22:	11 27       	eor	r17, r17
     a24:	00 27       	eor	r16, r16
     a26:	01 2e       	mov	r0, r17
     a28:	00 0c       	add	r0, r0
     a2a:	22 0b       	sbc	r18, r18
     a2c:	33 0b       	sbc	r19, r19
     a2e:	0c 29       	or	r16, r12
     a30:	1d 29       	or	r17, r13
     a32:	2e 29       	or	r18, r14
     a34:	3f 29       	or	r19, r15
     a36:	9d c0       	rjmp	.+314    	; 0xb72 <Seven_Segment_enuDisplayNumber+0x2d0>
		}
		else if(SEV_SEG_AstrSEGConfig[Copy_SEG_ID].SEG_TYPE == COMMON_CATHODE)
     a38:	26 30       	cpi	r18, 0x06	; 6
     a3a:	09 f0       	breq	.+2      	; 0xa3e <Seven_Segment_enuDisplayNumber+0x19c>
     a3c:	97 c0       	rjmp	.+302    	; 0xb6c <Seven_Segment_enuDisplayNumber+0x2ca>
		{
			Local_u32CheckError |= (DIO_enuSetPinVal(SEV_SEG_AstrSEGConfig[Copy_SEG_ID].SEG_APORT, SEV_SEG_AstrSEGConfig[Copy_SEG_ID].SEG_APIN, ((SEGCth_Numbers[Copy_u8Number] >> APIN_POS) & MASK_BIT)) << Local_u8Iterator_Error);
     a3e:	e6 2f       	mov	r30, r22
     a40:	f0 e0       	ldi	r31, 0x00	; 0
     a42:	eb 5c       	subi	r30, 0xCB	; 203
     a44:	fe 4f       	sbci	r31, 0xFE	; 254
     a46:	10 81       	ld	r17, Z
     a48:	41 2f       	mov	r20, r17
     a4a:	41 70       	andi	r20, 0x01	; 1
     a4c:	23 e1       	ldi	r18, 0x13	; 19
     a4e:	28 9f       	mul	r18, r24
     a50:	e0 01       	movw	r28, r0
     a52:	29 9f       	mul	r18, r25
     a54:	d0 0d       	add	r29, r0
     a56:	11 24       	eor	r1, r1
     a58:	c0 5a       	subi	r28, 0xA0	; 160
     a5a:	df 4f       	sbci	r29, 0xFF	; 255
     a5c:	69 81       	ldd	r22, Y+1	; 0x01
     a5e:	88 81       	ld	r24, Y
     a60:	0e 94 5f 06 	call	0xcbe	; 0xcbe <DIO_enuSetPinVal>
     a64:	c8 2e       	mov	r12, r24
     a66:	d1 2c       	mov	r13, r1
     a68:	e1 2c       	mov	r14, r1
     a6a:	f1 2c       	mov	r15, r1
			Local_u32CheckError |= (DIO_enuSetPinVal(SEV_SEG_AstrSEGConfig[Copy_SEG_ID].SEG_BPORT, SEV_SEG_AstrSEGConfig[Copy_SEG_ID].SEG_BPIN, ((SEGCth_Numbers[Copy_u8Number] >> BPIN_POS) & MASK_BIT)) << (Local_u8Iterator_Error += ERROR_STATE_SIZE));
     a6c:	11 fb       	bst	r17, 1
     a6e:	44 27       	eor	r20, r20
     a70:	40 f9       	bld	r20, 0
     a72:	6b 81       	ldd	r22, Y+3	; 0x03
     a74:	8a 81       	ldd	r24, Y+2	; 0x02
     a76:	0e 94 5f 06 	call	0xcbe	; 0xcbe <DIO_enuSetPinVal>
     a7a:	48 2e       	mov	r4, r24
     a7c:	51 2c       	mov	r5, r1
     a7e:	44 0c       	add	r4, r4
     a80:	55 1c       	adc	r5, r5
     a82:	44 0c       	add	r4, r4
     a84:	55 1c       	adc	r5, r5
     a86:	44 0c       	add	r4, r4
     a88:	55 1c       	adc	r5, r5
     a8a:	05 2c       	mov	r0, r5
     a8c:	00 0c       	add	r0, r0
     a8e:	66 08       	sbc	r6, r6
     a90:	77 08       	sbc	r7, r7
     a92:	c4 28       	or	r12, r4
     a94:	d5 28       	or	r13, r5
     a96:	e6 28       	or	r14, r6
     a98:	f7 28       	or	r15, r7
			Local_u32CheckError |= (DIO_enuSetPinVal(SEV_SEG_AstrSEGConfig[Copy_SEG_ID].SEG_CPORT, SEV_SEG_AstrSEGConfig[Copy_SEG_ID].SEG_CPIN, ((SEGCth_Numbers[Copy_u8Number] >> CPIN_POS) & MASK_BIT)) << (Local_u8Iterator_Error += ERROR_STATE_SIZE));
     a9a:	12 fb       	bst	r17, 2
     a9c:	44 27       	eor	r20, r20
     a9e:	40 f9       	bld	r20, 0
     aa0:	6d 81       	ldd	r22, Y+5	; 0x05
     aa2:	8c 81       	ldd	r24, Y+4	; 0x04
     aa4:	0e 94 5f 06 	call	0xcbe	; 0xcbe <DIO_enuSetPinVal>
     aa8:	20 e4       	ldi	r18, 0x40	; 64
     aaa:	82 9f       	mul	r24, r18
     aac:	c0 01       	movw	r24, r0
     aae:	11 24       	eor	r1, r1
     ab0:	2c 01       	movw	r4, r24
     ab2:	99 0f       	add	r25, r25
     ab4:	66 08       	sbc	r6, r6
     ab6:	77 08       	sbc	r7, r7
     ab8:	c4 28       	or	r12, r4
     aba:	d5 28       	or	r13, r5
     abc:	e6 28       	or	r14, r6
     abe:	f7 28       	or	r15, r7
			Local_u32CheckError |= (DIO_enuSetPinVal(SEV_SEG_AstrSEGConfig[Copy_SEG_ID].SEG_DPORT, SEV_SEG_AstrSEGConfig[Copy_SEG_ID].SEG_DPIN, ((SEGCth_Numbers[Copy_u8Number] >> DPIN_POS) & MASK_BIT)) << (Local_u8Iterator_Error += ERROR_STATE_SIZE));
     ac0:	13 fb       	bst	r17, 3
     ac2:	44 27       	eor	r20, r20
     ac4:	40 f9       	bld	r20, 0
     ac6:	6f 81       	ldd	r22, Y+7	; 0x07
     ac8:	8e 81       	ldd	r24, Y+6	; 0x06
     aca:	0e 94 5f 06 	call	0xcbe	; 0xcbe <DIO_enuSetPinVal>
     ace:	48 2e       	mov	r4, r24
     ad0:	51 2c       	mov	r5, r1
     ad2:	54 2c       	mov	r5, r4
     ad4:	44 24       	eor	r4, r4
     ad6:	55 0c       	add	r5, r5
     ad8:	05 2c       	mov	r0, r5
     ada:	00 0c       	add	r0, r0
     adc:	66 08       	sbc	r6, r6
     ade:	77 08       	sbc	r7, r7
     ae0:	4c 28       	or	r4, r12
     ae2:	5d 28       	or	r5, r13
     ae4:	6e 28       	or	r6, r14
     ae6:	7f 28       	or	r7, r15
			Local_u32CheckError |= (DIO_enuSetPinVal(SEV_SEG_AstrSEGConfig[Copy_SEG_ID].SEG_EPORT, SEV_SEG_AstrSEGConfig[Copy_SEG_ID].SEG_EPIN, ((SEGCth_Numbers[Copy_u8Number] >> EPIN_POS) & MASK_BIT)) << (Local_u8Iterator_Error += ERROR_STATE_SIZE));
     ae8:	14 fb       	bst	r17, 4
     aea:	44 27       	eor	r20, r20
     aec:	40 f9       	bld	r20, 0
     aee:	69 85       	ldd	r22, Y+9	; 0x09
     af0:	88 85       	ldd	r24, Y+8	; 0x08
     af2:	0e 94 5f 06 	call	0xcbe	; 0xcbe <DIO_enuSetPinVal>
     af6:	c8 2e       	mov	r12, r24
     af8:	d1 2c       	mov	r13, r1
     afa:	dc 2c       	mov	r13, r12
     afc:	cc 24       	eor	r12, r12
     afe:	dd 0c       	add	r13, r13
     b00:	dd 0c       	add	r13, r13
     b02:	dd 0c       	add	r13, r13
     b04:	dd 0c       	add	r13, r13
     b06:	0d 2c       	mov	r0, r13
     b08:	00 0c       	add	r0, r0
     b0a:	ee 08       	sbc	r14, r14
     b0c:	ff 08       	sbc	r15, r15
     b0e:	46 01       	movw	r8, r12
     b10:	57 01       	movw	r10, r14
     b12:	84 28       	or	r8, r4
     b14:	95 28       	or	r9, r5
     b16:	a6 28       	or	r10, r6
     b18:	b7 28       	or	r11, r7
			Local_u32CheckError |= (DIO_enuSetPinVal(SEV_SEG_AstrSEGConfig[Copy_SEG_ID].SEG_FPORT, SEV_SEG_AstrSEGConfig[Copy_SEG_ID].SEG_FPIN, ((SEGCth_Numbers[Copy_u8Number] >> FPIN_POS) & MASK_BIT)) << (Local_u8Iterator_Error += ERROR_STATE_SIZE));
     b1a:	15 fb       	bst	r17, 5
     b1c:	44 27       	eor	r20, r20
     b1e:	40 f9       	bld	r20, 0
     b20:	6b 85       	ldd	r22, Y+11	; 0x0b
     b22:	8a 85       	ldd	r24, Y+10	; 0x0a
     b24:	0e 94 5f 06 	call	0xcbe	; 0xcbe <DIO_enuSetPinVal>
     b28:	c8 2e       	mov	r12, r24
     b2a:	d1 2c       	mov	r13, r1
     b2c:	dd 24       	eor	r13, r13
     b2e:	c6 94       	lsr	r12
     b30:	d7 94       	ror	r13
     b32:	cc 24       	eor	r12, r12
     b34:	0d 2c       	mov	r0, r13
     b36:	00 0c       	add	r0, r0
     b38:	ee 08       	sbc	r14, r14
     b3a:	ff 08       	sbc	r15, r15
     b3c:	c8 28       	or	r12, r8
     b3e:	d9 28       	or	r13, r9
     b40:	ea 28       	or	r14, r10
     b42:	fb 28       	or	r15, r11
			Local_u32CheckError |= (DIO_enuSetPinVal(SEV_SEG_AstrSEGConfig[Copy_SEG_ID].SEG_GPORT, SEV_SEG_AstrSEGConfig[Copy_SEG_ID].SEG_GPIN, ((SEGCth_Numbers[Copy_u8Number] >> GPIN_POS) & MASK_BIT)) << (Local_u8Iterator_Error += ERROR_STATE_SIZE));
     b44:	16 fb       	bst	r17, 6
     b46:	44 27       	eor	r20, r20
     b48:	40 f9       	bld	r20, 0
     b4a:	6d 85       	ldd	r22, Y+13	; 0x0d
     b4c:	8c 85       	ldd	r24, Y+12	; 0x0c
     b4e:	0e 94 5f 06 	call	0xcbe	; 0xcbe <DIO_enuSetPinVal>
     b52:	08 2f       	mov	r16, r24
     b54:	10 e0       	ldi	r17, 0x00	; 0
     b56:	11 27       	eor	r17, r17
     b58:	00 27       	eor	r16, r16
     b5a:	01 2e       	mov	r0, r17
     b5c:	00 0c       	add	r0, r0
     b5e:	22 0b       	sbc	r18, r18
     b60:	33 0b       	sbc	r19, r19
     b62:	0c 29       	or	r16, r12
     b64:	1d 29       	or	r17, r13
     b66:	2e 29       	or	r18, r14
     b68:	3f 29       	or	r19, r15
     b6a:	03 c0       	rjmp	.+6      	; 0xb72 <Seven_Segment_enuDisplayNumber+0x2d0>
ES_t Seven_Segment_enuDisplayNumber(u8 Copy_SEG_ID, u8 Copy_u8Number)
{
	ES_t Local_enuErrorState = ES_NOK;
	
	u8 Local_u8Iterator_Error = 0;
	u32 Local_u32CheckError = 0;
     b6c:	00 e0       	ldi	r16, 0x00	; 0
     b6e:	10 e0       	ldi	r17, 0x00	; 0
     b70:	98 01       	movw	r18, r16
			Local_u32CheckError |= (DIO_enuSetPinVal(SEV_SEG_AstrSEGConfig[Copy_SEG_ID].SEG_EPORT, SEV_SEG_AstrSEGConfig[Copy_SEG_ID].SEG_EPIN, ((SEGCth_Numbers[Copy_u8Number] >> EPIN_POS) & MASK_BIT)) << (Local_u8Iterator_Error += ERROR_STATE_SIZE));
			Local_u32CheckError |= (DIO_enuSetPinVal(SEV_SEG_AstrSEGConfig[Copy_SEG_ID].SEG_FPORT, SEV_SEG_AstrSEGConfig[Copy_SEG_ID].SEG_FPIN, ((SEGCth_Numbers[Copy_u8Number] >> FPIN_POS) & MASK_BIT)) << (Local_u8Iterator_Error += ERROR_STATE_SIZE));
			Local_u32CheckError |= (DIO_enuSetPinVal(SEV_SEG_AstrSEGConfig[Copy_SEG_ID].SEG_GPORT, SEV_SEG_AstrSEGConfig[Copy_SEG_ID].SEG_GPIN, ((SEGCth_Numbers[Copy_u8Number] >> GPIN_POS) & MASK_BIT)) << (Local_u8Iterator_Error += ERROR_STATE_SIZE));
		}
		
		for(Local_u8Iterator_Error = 0; Local_u8Iterator_Error < sizeof(Local_u32CheckError)*8; Local_u8Iterator_Error += ERROR_STATE_SIZE)
     b72:	80 e0       	ldi	r24, 0x00	; 0
     b74:	13 c0       	rjmp	.+38     	; 0xb9c <Seven_Segment_enuDisplayNumber+0x2fa>
		{
			if(((Local_u32CheckError >> Local_u8Iterator_Error) & ERROR_STATE_MASK) != ES_OK)
     b76:	b9 01       	movw	r22, r18
     b78:	a8 01       	movw	r20, r16
     b7a:	08 2e       	mov	r0, r24
     b7c:	04 c0       	rjmp	.+8      	; 0xb86 <Seven_Segment_enuDisplayNumber+0x2e4>
     b7e:	76 95       	lsr	r23
     b80:	67 95       	ror	r22
     b82:	57 95       	ror	r21
     b84:	47 95       	ror	r20
     b86:	0a 94       	dec	r0
     b88:	d2 f7       	brpl	.-12     	; 0xb7e <Seven_Segment_enuDisplayNumber+0x2dc>
     b8a:	47 70       	andi	r20, 0x07	; 7
     b8c:	55 27       	eor	r21, r21
     b8e:	66 27       	eor	r22, r22
     b90:	77 27       	eor	r23, r23
     b92:	45 2b       	or	r20, r21
     b94:	46 2b       	or	r20, r22
     b96:	47 2b       	or	r20, r23
     b98:	49 f4       	brne	.+18     	; 0xbac <Seven_Segment_enuDisplayNumber+0x30a>
			Local_u32CheckError |= (DIO_enuSetPinVal(SEV_SEG_AstrSEGConfig[Copy_SEG_ID].SEG_EPORT, SEV_SEG_AstrSEGConfig[Copy_SEG_ID].SEG_EPIN, ((SEGCth_Numbers[Copy_u8Number] >> EPIN_POS) & MASK_BIT)) << (Local_u8Iterator_Error += ERROR_STATE_SIZE));
			Local_u32CheckError |= (DIO_enuSetPinVal(SEV_SEG_AstrSEGConfig[Copy_SEG_ID].SEG_FPORT, SEV_SEG_AstrSEGConfig[Copy_SEG_ID].SEG_FPIN, ((SEGCth_Numbers[Copy_u8Number] >> FPIN_POS) & MASK_BIT)) << (Local_u8Iterator_Error += ERROR_STATE_SIZE));
			Local_u32CheckError |= (DIO_enuSetPinVal(SEV_SEG_AstrSEGConfig[Copy_SEG_ID].SEG_GPORT, SEV_SEG_AstrSEGConfig[Copy_SEG_ID].SEG_GPIN, ((SEGCth_Numbers[Copy_u8Number] >> GPIN_POS) & MASK_BIT)) << (Local_u8Iterator_Error += ERROR_STATE_SIZE));
		}
		
		for(Local_u8Iterator_Error = 0; Local_u8Iterator_Error < sizeof(Local_u32CheckError)*8; Local_u8Iterator_Error += ERROR_STATE_SIZE)
     b9a:	8d 5f       	subi	r24, 0xFD	; 253
     b9c:	80 32       	cpi	r24, 0x20	; 32
     b9e:	58 f3       	brcs	.-42     	; 0xb76 <Seven_Segment_enuDisplayNumber+0x2d4>
			if(((Local_u32CheckError >> Local_u8Iterator_Error) & ERROR_STATE_MASK) != ES_OK)
			{
				return ES_NOK;
			}
		}
		Local_enuErrorState = ES_OK;
     ba0:	80 e0       	ldi	r24, 0x00	; 0
     ba2:	05 c0       	rjmp	.+10     	; 0xbae <Seven_Segment_enuDisplayNumber+0x30c>
	}
	else
	{
		Local_enuErrorState = ES_OUT_OF_RANGE;
     ba4:	83 e0       	ldi	r24, 0x03	; 3
     ba6:	03 c0       	rjmp	.+6      	; 0xbae <Seven_Segment_enuDisplayNumber+0x30c>
     ba8:	83 e0       	ldi	r24, 0x03	; 3
     baa:	01 c0       	rjmp	.+2      	; 0xbae <Seven_Segment_enuDisplayNumber+0x30c>
		
		for(Local_u8Iterator_Error = 0; Local_u8Iterator_Error < sizeof(Local_u32CheckError)*8; Local_u8Iterator_Error += ERROR_STATE_SIZE)
		{
			if(((Local_u32CheckError >> Local_u8Iterator_Error) & ERROR_STATE_MASK) != ES_OK)
			{
				return ES_NOK;
     bac:	81 e0       	ldi	r24, 0x01	; 1
	{
		Local_enuErrorState = ES_OUT_OF_RANGE;
	}
	
	return Local_enuErrorState;
}
     bae:	df 91       	pop	r29
     bb0:	cf 91       	pop	r28
     bb2:	1f 91       	pop	r17
     bb4:	0f 91       	pop	r16
     bb6:	ff 90       	pop	r15
     bb8:	ef 90       	pop	r14
     bba:	df 90       	pop	r13
     bbc:	cf 90       	pop	r12
     bbe:	bf 90       	pop	r11
     bc0:	af 90       	pop	r10
     bc2:	9f 90       	pop	r9
     bc4:	8f 90       	pop	r8
     bc6:	7f 90       	pop	r7
     bc8:	6f 90       	pop	r6
     bca:	5f 90       	pop	r5
     bcc:	4f 90       	pop	r4
     bce:	08 95       	ret

00000bd0 <main>:
#include "APP/Ping_Pong_Game_config.h"
#include "APP/Ping_Pong_Game_int.h"

int main(void)
{
	PING_PONG_GAME_enuInit();
     bd0:	0e 94 30 01 	call	0x260	; 0x260 <PING_PONG_GAME_enuInit>
	
	PING_PONG_GAME_enuStartPlaying();
     bd4:	0e 94 80 01 	call	0x300	; 0x300 <PING_PONG_GAME_enuStartPlaying>
     bd8:	ff cf       	rjmp	.-2      	; 0xbd8 <main+0x8>

00000bda <DIO_enuSetPinDirection>:
**/
ES_t DIO_enuSetPinDirection(u8 Copy_u8PortID, u8 Copy_u8PinID, u8 Copy_u8Value)
{
	ES_t Local_enuErrorState = ES_NOK;
	
	if(Copy_u8PortID <= DIO_PORTD && Copy_u8PinID <= DIO_PIN7 && Copy_u8Value <= OUTPUT)
     bda:	84 30       	cpi	r24, 0x04	; 4
     bdc:	08 f0       	brcs	.+2      	; 0xbe0 <DIO_enuSetPinDirection+0x6>
     bde:	67 c0       	rjmp	.+206    	; 0xcae <DIO_enuSetPinDirection+0xd4>
     be0:	68 30       	cpi	r22, 0x08	; 8
     be2:	08 f0       	brcs	.+2      	; 0xbe6 <DIO_enuSetPinDirection+0xc>
     be4:	66 c0       	rjmp	.+204    	; 0xcb2 <DIO_enuSetPinDirection+0xd8>
     be6:	42 30       	cpi	r20, 0x02	; 2
     be8:	08 f0       	brcs	.+2      	; 0xbec <DIO_enuSetPinDirection+0x12>
     bea:	65 c0       	rjmp	.+202    	; 0xcb6 <DIO_enuSetPinDirection+0xdc>
	{
		switch(Copy_u8PortID)
     bec:	81 30       	cpi	r24, 0x01	; 1
     bee:	e9 f0       	breq	.+58     	; 0xc2a <DIO_enuSetPinDirection+0x50>
     bf0:	30 f0       	brcs	.+12     	; 0xbfe <DIO_enuSetPinDirection+0x24>
     bf2:	82 30       	cpi	r24, 0x02	; 2
     bf4:	81 f1       	breq	.+96     	; 0xc56 <DIO_enuSetPinDirection+0x7c>
     bf6:	83 30       	cpi	r24, 0x03	; 3
     bf8:	09 f4       	brne	.+2      	; 0xbfc <DIO_enuSetPinDirection+0x22>
     bfa:	43 c0       	rjmp	.+134    	; 0xc82 <DIO_enuSetPinDirection+0xa8>
     bfc:	5e c0       	rjmp	.+188    	; 0xcba <DIO_enuSetPinDirection+0xe0>
		{
			case DIO_PORTA:
			DDRA &= ~(DIO_MASK_BIT << Copy_u8PinID);
     bfe:	81 e0       	ldi	r24, 0x01	; 1
     c00:	90 e0       	ldi	r25, 0x00	; 0
     c02:	06 2e       	mov	r0, r22
     c04:	02 c0       	rjmp	.+4      	; 0xc0a <DIO_enuSetPinDirection+0x30>
     c06:	88 0f       	add	r24, r24
     c08:	99 1f       	adc	r25, r25
     c0a:	0a 94       	dec	r0
     c0c:	e2 f7       	brpl	.-8      	; 0xc06 <DIO_enuSetPinDirection+0x2c>
     c0e:	80 95       	com	r24
     c10:	2a b3       	in	r18, 0x1a	; 26
     c12:	28 23       	and	r18, r24
			DDRA |=  (Copy_u8Value << Copy_u8PinID);
     c14:	84 2f       	mov	r24, r20
     c16:	90 e0       	ldi	r25, 0x00	; 0
     c18:	02 c0       	rjmp	.+4      	; 0xc1e <DIO_enuSetPinDirection+0x44>
     c1a:	88 0f       	add	r24, r24
     c1c:	99 1f       	adc	r25, r25
     c1e:	6a 95       	dec	r22
     c20:	e2 f7       	brpl	.-8      	; 0xc1a <DIO_enuSetPinDirection+0x40>
     c22:	82 2b       	or	r24, r18
     c24:	8a bb       	out	0x1a, r24	; 26
			case DIO_PORTD:
			DDRD &= ~(DIO_MASK_BIT << Copy_u8PinID);
			DDRD |=  (Copy_u8Value << Copy_u8PinID);
			break;
		}
		Local_enuErrorState = ES_OK;
     c26:	80 e0       	ldi	r24, 0x00	; 0
		switch(Copy_u8PortID)
		{
			case DIO_PORTA:
			DDRA &= ~(DIO_MASK_BIT << Copy_u8PinID);
			DDRA |=  (Copy_u8Value << Copy_u8PinID);
			break;
     c28:	08 95       	ret
			
			case DIO_PORTB:
			DDRB &= ~(DIO_MASK_BIT << Copy_u8PinID);
     c2a:	21 e0       	ldi	r18, 0x01	; 1
     c2c:	30 e0       	ldi	r19, 0x00	; 0
     c2e:	06 2e       	mov	r0, r22
     c30:	02 c0       	rjmp	.+4      	; 0xc36 <DIO_enuSetPinDirection+0x5c>
     c32:	22 0f       	add	r18, r18
     c34:	33 1f       	adc	r19, r19
     c36:	0a 94       	dec	r0
     c38:	e2 f7       	brpl	.-8      	; 0xc32 <DIO_enuSetPinDirection+0x58>
     c3a:	20 95       	com	r18
     c3c:	87 b3       	in	r24, 0x17	; 23
     c3e:	28 23       	and	r18, r24
			DDRB |=  (Copy_u8Value << Copy_u8PinID);
     c40:	84 2f       	mov	r24, r20
     c42:	90 e0       	ldi	r25, 0x00	; 0
     c44:	02 c0       	rjmp	.+4      	; 0xc4a <DIO_enuSetPinDirection+0x70>
     c46:	88 0f       	add	r24, r24
     c48:	99 1f       	adc	r25, r25
     c4a:	6a 95       	dec	r22
     c4c:	e2 f7       	brpl	.-8      	; 0xc46 <DIO_enuSetPinDirection+0x6c>
     c4e:	82 2b       	or	r24, r18
     c50:	87 bb       	out	0x17, r24	; 23
			case DIO_PORTD:
			DDRD &= ~(DIO_MASK_BIT << Copy_u8PinID);
			DDRD |=  (Copy_u8Value << Copy_u8PinID);
			break;
		}
		Local_enuErrorState = ES_OK;
     c52:	80 e0       	ldi	r24, 0x00	; 0
			break;
			
			case DIO_PORTB:
			DDRB &= ~(DIO_MASK_BIT << Copy_u8PinID);
			DDRB |=  (Copy_u8Value << Copy_u8PinID);
			break;
     c54:	08 95       	ret
			
			case DIO_PORTC:
			DDRC &= ~(DIO_MASK_BIT << Copy_u8PinID);
     c56:	21 e0       	ldi	r18, 0x01	; 1
     c58:	30 e0       	ldi	r19, 0x00	; 0
     c5a:	06 2e       	mov	r0, r22
     c5c:	02 c0       	rjmp	.+4      	; 0xc62 <DIO_enuSetPinDirection+0x88>
     c5e:	22 0f       	add	r18, r18
     c60:	33 1f       	adc	r19, r19
     c62:	0a 94       	dec	r0
     c64:	e2 f7       	brpl	.-8      	; 0xc5e <DIO_enuSetPinDirection+0x84>
     c66:	20 95       	com	r18
     c68:	84 b3       	in	r24, 0x14	; 20
     c6a:	28 23       	and	r18, r24
			DDRC |=  (Copy_u8Value << Copy_u8PinID);
     c6c:	84 2f       	mov	r24, r20
     c6e:	90 e0       	ldi	r25, 0x00	; 0
     c70:	02 c0       	rjmp	.+4      	; 0xc76 <DIO_enuSetPinDirection+0x9c>
     c72:	88 0f       	add	r24, r24
     c74:	99 1f       	adc	r25, r25
     c76:	6a 95       	dec	r22
     c78:	e2 f7       	brpl	.-8      	; 0xc72 <DIO_enuSetPinDirection+0x98>
     c7a:	82 2b       	or	r24, r18
     c7c:	84 bb       	out	0x14, r24	; 20
			case DIO_PORTD:
			DDRD &= ~(DIO_MASK_BIT << Copy_u8PinID);
			DDRD |=  (Copy_u8Value << Copy_u8PinID);
			break;
		}
		Local_enuErrorState = ES_OK;
     c7e:	80 e0       	ldi	r24, 0x00	; 0
			break;
			
			case DIO_PORTC:
			DDRC &= ~(DIO_MASK_BIT << Copy_u8PinID);
			DDRC |=  (Copy_u8Value << Copy_u8PinID);
			break;
     c80:	08 95       	ret
			
			case DIO_PORTD:
			DDRD &= ~(DIO_MASK_BIT << Copy_u8PinID);
     c82:	21 e0       	ldi	r18, 0x01	; 1
     c84:	30 e0       	ldi	r19, 0x00	; 0
     c86:	06 2e       	mov	r0, r22
     c88:	02 c0       	rjmp	.+4      	; 0xc8e <DIO_enuSetPinDirection+0xb4>
     c8a:	22 0f       	add	r18, r18
     c8c:	33 1f       	adc	r19, r19
     c8e:	0a 94       	dec	r0
     c90:	e2 f7       	brpl	.-8      	; 0xc8a <DIO_enuSetPinDirection+0xb0>
     c92:	20 95       	com	r18
     c94:	81 b3       	in	r24, 0x11	; 17
     c96:	28 23       	and	r18, r24
			DDRD |=  (Copy_u8Value << Copy_u8PinID);
     c98:	84 2f       	mov	r24, r20
     c9a:	90 e0       	ldi	r25, 0x00	; 0
     c9c:	02 c0       	rjmp	.+4      	; 0xca2 <DIO_enuSetPinDirection+0xc8>
     c9e:	88 0f       	add	r24, r24
     ca0:	99 1f       	adc	r25, r25
     ca2:	6a 95       	dec	r22
     ca4:	e2 f7       	brpl	.-8      	; 0xc9e <DIO_enuSetPinDirection+0xc4>
     ca6:	82 2b       	or	r24, r18
     ca8:	81 bb       	out	0x11, r24	; 17
			break;
		}
		Local_enuErrorState = ES_OK;
     caa:	80 e0       	ldi	r24, 0x00	; 0
			break;
			
			case DIO_PORTD:
			DDRD &= ~(DIO_MASK_BIT << Copy_u8PinID);
			DDRD |=  (Copy_u8Value << Copy_u8PinID);
			break;
     cac:	08 95       	ret
		}
		Local_enuErrorState = ES_OK;
	}
	else
	{
		Local_enuErrorState = ES_OUT_OF_RANGE;
     cae:	83 e0       	ldi	r24, 0x03	; 3
     cb0:	08 95       	ret
     cb2:	83 e0       	ldi	r24, 0x03	; 3
     cb4:	08 95       	ret
     cb6:	83 e0       	ldi	r24, 0x03	; 3
     cb8:	08 95       	ret
			case DIO_PORTD:
			DDRD &= ~(DIO_MASK_BIT << Copy_u8PinID);
			DDRD |=  (Copy_u8Value << Copy_u8PinID);
			break;
		}
		Local_enuErrorState = ES_OK;
     cba:	80 e0       	ldi	r24, 0x00	; 0
	{
		Local_enuErrorState = ES_OUT_OF_RANGE;
	}
	
	return Local_enuErrorState;
}
     cbc:	08 95       	ret

00000cbe <DIO_enuSetPinVal>:
**/
ES_t DIO_enuSetPinVal(u8 Copy_u8PortID, u8 Copy_u8PinID, u8 Copy_u8Value)
{
	ES_t Local_enuErrorState = ES_NOK;
	
	if(Copy_u8PortID <= DIO_PORTD && Copy_u8PinID <= DIO_PIN7 && Copy_u8Value <= OUTPUT)
     cbe:	84 30       	cpi	r24, 0x04	; 4
     cc0:	08 f0       	brcs	.+2      	; 0xcc4 <DIO_enuSetPinVal+0x6>
     cc2:	67 c0       	rjmp	.+206    	; 0xd92 <DIO_enuSetPinVal+0xd4>
     cc4:	68 30       	cpi	r22, 0x08	; 8
     cc6:	08 f0       	brcs	.+2      	; 0xcca <DIO_enuSetPinVal+0xc>
     cc8:	66 c0       	rjmp	.+204    	; 0xd96 <DIO_enuSetPinVal+0xd8>
     cca:	42 30       	cpi	r20, 0x02	; 2
     ccc:	08 f0       	brcs	.+2      	; 0xcd0 <DIO_enuSetPinVal+0x12>
     cce:	65 c0       	rjmp	.+202    	; 0xd9a <DIO_enuSetPinVal+0xdc>
	{
		switch(Copy_u8PortID)
     cd0:	81 30       	cpi	r24, 0x01	; 1
     cd2:	e9 f0       	breq	.+58     	; 0xd0e <DIO_enuSetPinVal+0x50>
     cd4:	30 f0       	brcs	.+12     	; 0xce2 <DIO_enuSetPinVal+0x24>
     cd6:	82 30       	cpi	r24, 0x02	; 2
     cd8:	81 f1       	breq	.+96     	; 0xd3a <DIO_enuSetPinVal+0x7c>
     cda:	83 30       	cpi	r24, 0x03	; 3
     cdc:	09 f4       	brne	.+2      	; 0xce0 <DIO_enuSetPinVal+0x22>
     cde:	43 c0       	rjmp	.+134    	; 0xd66 <DIO_enuSetPinVal+0xa8>
     ce0:	5e c0       	rjmp	.+188    	; 0xd9e <DIO_enuSetPinVal+0xe0>
		{
			case DIO_PORTA:
			PORTA &= ~(DIO_MASK_BIT << Copy_u8PinID);
     ce2:	81 e0       	ldi	r24, 0x01	; 1
     ce4:	90 e0       	ldi	r25, 0x00	; 0
     ce6:	06 2e       	mov	r0, r22
     ce8:	02 c0       	rjmp	.+4      	; 0xcee <DIO_enuSetPinVal+0x30>
     cea:	88 0f       	add	r24, r24
     cec:	99 1f       	adc	r25, r25
     cee:	0a 94       	dec	r0
     cf0:	e2 f7       	brpl	.-8      	; 0xcea <DIO_enuSetPinVal+0x2c>
     cf2:	80 95       	com	r24
     cf4:	2b b3       	in	r18, 0x1b	; 27
     cf6:	28 23       	and	r18, r24
			PORTA |=  (Copy_u8Value << Copy_u8PinID);
     cf8:	84 2f       	mov	r24, r20
     cfa:	90 e0       	ldi	r25, 0x00	; 0
     cfc:	02 c0       	rjmp	.+4      	; 0xd02 <DIO_enuSetPinVal+0x44>
     cfe:	88 0f       	add	r24, r24
     d00:	99 1f       	adc	r25, r25
     d02:	6a 95       	dec	r22
     d04:	e2 f7       	brpl	.-8      	; 0xcfe <DIO_enuSetPinVal+0x40>
     d06:	82 2b       	or	r24, r18
     d08:	8b bb       	out	0x1b, r24	; 27
			case DIO_PORTD:
			PORTD &= ~(DIO_MASK_BIT << Copy_u8PinID);
			PORTD |=  (Copy_u8Value << Copy_u8PinID);
			break;
		}
		Local_enuErrorState = ES_OK;
     d0a:	80 e0       	ldi	r24, 0x00	; 0
		switch(Copy_u8PortID)
		{
			case DIO_PORTA:
			PORTA &= ~(DIO_MASK_BIT << Copy_u8PinID);
			PORTA |=  (Copy_u8Value << Copy_u8PinID);
			break;
     d0c:	08 95       	ret
			
			case DIO_PORTB:
			PORTB &= ~(DIO_MASK_BIT << Copy_u8PinID);
     d0e:	21 e0       	ldi	r18, 0x01	; 1
     d10:	30 e0       	ldi	r19, 0x00	; 0
     d12:	06 2e       	mov	r0, r22
     d14:	02 c0       	rjmp	.+4      	; 0xd1a <DIO_enuSetPinVal+0x5c>
     d16:	22 0f       	add	r18, r18
     d18:	33 1f       	adc	r19, r19
     d1a:	0a 94       	dec	r0
     d1c:	e2 f7       	brpl	.-8      	; 0xd16 <DIO_enuSetPinVal+0x58>
     d1e:	20 95       	com	r18
     d20:	88 b3       	in	r24, 0x18	; 24
     d22:	28 23       	and	r18, r24
			PORTB |=  (Copy_u8Value << Copy_u8PinID);
     d24:	84 2f       	mov	r24, r20
     d26:	90 e0       	ldi	r25, 0x00	; 0
     d28:	02 c0       	rjmp	.+4      	; 0xd2e <DIO_enuSetPinVal+0x70>
     d2a:	88 0f       	add	r24, r24
     d2c:	99 1f       	adc	r25, r25
     d2e:	6a 95       	dec	r22
     d30:	e2 f7       	brpl	.-8      	; 0xd2a <DIO_enuSetPinVal+0x6c>
     d32:	82 2b       	or	r24, r18
     d34:	88 bb       	out	0x18, r24	; 24
			case DIO_PORTD:
			PORTD &= ~(DIO_MASK_BIT << Copy_u8PinID);
			PORTD |=  (Copy_u8Value << Copy_u8PinID);
			break;
		}
		Local_enuErrorState = ES_OK;
     d36:	80 e0       	ldi	r24, 0x00	; 0
			break;
			
			case DIO_PORTB:
			PORTB &= ~(DIO_MASK_BIT << Copy_u8PinID);
			PORTB |=  (Copy_u8Value << Copy_u8PinID);
			break;
     d38:	08 95       	ret
			
			case DIO_PORTC:
			PORTC &= ~(DIO_MASK_BIT << Copy_u8PinID);
     d3a:	21 e0       	ldi	r18, 0x01	; 1
     d3c:	30 e0       	ldi	r19, 0x00	; 0
     d3e:	06 2e       	mov	r0, r22
     d40:	02 c0       	rjmp	.+4      	; 0xd46 <DIO_enuSetPinVal+0x88>
     d42:	22 0f       	add	r18, r18
     d44:	33 1f       	adc	r19, r19
     d46:	0a 94       	dec	r0
     d48:	e2 f7       	brpl	.-8      	; 0xd42 <DIO_enuSetPinVal+0x84>
     d4a:	20 95       	com	r18
     d4c:	85 b3       	in	r24, 0x15	; 21
     d4e:	28 23       	and	r18, r24
			PORTC |=  (Copy_u8Value << Copy_u8PinID);
     d50:	84 2f       	mov	r24, r20
     d52:	90 e0       	ldi	r25, 0x00	; 0
     d54:	02 c0       	rjmp	.+4      	; 0xd5a <DIO_enuSetPinVal+0x9c>
     d56:	88 0f       	add	r24, r24
     d58:	99 1f       	adc	r25, r25
     d5a:	6a 95       	dec	r22
     d5c:	e2 f7       	brpl	.-8      	; 0xd56 <DIO_enuSetPinVal+0x98>
     d5e:	82 2b       	or	r24, r18
     d60:	85 bb       	out	0x15, r24	; 21
			case DIO_PORTD:
			PORTD &= ~(DIO_MASK_BIT << Copy_u8PinID);
			PORTD |=  (Copy_u8Value << Copy_u8PinID);
			break;
		}
		Local_enuErrorState = ES_OK;
     d62:	80 e0       	ldi	r24, 0x00	; 0
			break;
			
			case DIO_PORTC:
			PORTC &= ~(DIO_MASK_BIT << Copy_u8PinID);
			PORTC |=  (Copy_u8Value << Copy_u8PinID);
			break;
     d64:	08 95       	ret
			
			case DIO_PORTD:
			PORTD &= ~(DIO_MASK_BIT << Copy_u8PinID);
     d66:	21 e0       	ldi	r18, 0x01	; 1
     d68:	30 e0       	ldi	r19, 0x00	; 0
     d6a:	06 2e       	mov	r0, r22
     d6c:	02 c0       	rjmp	.+4      	; 0xd72 <DIO_enuSetPinVal+0xb4>
     d6e:	22 0f       	add	r18, r18
     d70:	33 1f       	adc	r19, r19
     d72:	0a 94       	dec	r0
     d74:	e2 f7       	brpl	.-8      	; 0xd6e <DIO_enuSetPinVal+0xb0>
     d76:	20 95       	com	r18
     d78:	82 b3       	in	r24, 0x12	; 18
     d7a:	28 23       	and	r18, r24
			PORTD |=  (Copy_u8Value << Copy_u8PinID);
     d7c:	84 2f       	mov	r24, r20
     d7e:	90 e0       	ldi	r25, 0x00	; 0
     d80:	02 c0       	rjmp	.+4      	; 0xd86 <DIO_enuSetPinVal+0xc8>
     d82:	88 0f       	add	r24, r24
     d84:	99 1f       	adc	r25, r25
     d86:	6a 95       	dec	r22
     d88:	e2 f7       	brpl	.-8      	; 0xd82 <DIO_enuSetPinVal+0xc4>
     d8a:	82 2b       	or	r24, r18
     d8c:	82 bb       	out	0x12, r24	; 18
			break;
		}
		Local_enuErrorState = ES_OK;
     d8e:	80 e0       	ldi	r24, 0x00	; 0
			break;
			
			case DIO_PORTD:
			PORTD &= ~(DIO_MASK_BIT << Copy_u8PinID);
			PORTD |=  (Copy_u8Value << Copy_u8PinID);
			break;
     d90:	08 95       	ret
		}
		Local_enuErrorState = ES_OK;
	}
	else
	{
		Local_enuErrorState = ES_OUT_OF_RANGE;
     d92:	83 e0       	ldi	r24, 0x03	; 3
     d94:	08 95       	ret
     d96:	83 e0       	ldi	r24, 0x03	; 3
     d98:	08 95       	ret
     d9a:	83 e0       	ldi	r24, 0x03	; 3
     d9c:	08 95       	ret
			case DIO_PORTD:
			PORTD &= ~(DIO_MASK_BIT << Copy_u8PinID);
			PORTD |=  (Copy_u8Value << Copy_u8PinID);
			break;
		}
		Local_enuErrorState = ES_OK;
     d9e:	80 e0       	ldi	r24, 0x00	; 0
	{
		Local_enuErrorState = ES_OUT_OF_RANGE;
	}
	
	return Local_enuErrorState;
}
     da0:	08 95       	ret

00000da2 <EXTI_enuInit>:
	{
		Local_enuErrorState = ES_OUT_OF_RANGE;
	}
	
	return Local_enuErrorState;
}
     da2:	ac 01       	movw	r20, r24
     da4:	89 2b       	or	r24, r25
     da6:	09 f0       	breq	.+2      	; 0xdaa <EXTI_enuInit+0x8>
     da8:	86 c0       	rjmp	.+268    	; 0xeb6 <EXTI_enuInit+0x114>
     daa:	82 e0       	ldi	r24, 0x02	; 2
     dac:	08 95       	ret
     dae:	e9 2f       	mov	r30, r25
     db0:	f0 e0       	ldi	r31, 0x00	; 0
     db2:	9f 01       	movw	r18, r30
     db4:	22 0f       	add	r18, r18
     db6:	33 1f       	adc	r19, r19
     db8:	e2 0f       	add	r30, r18
     dba:	f3 1f       	adc	r31, r19
     dbc:	e4 0f       	add	r30, r20
     dbe:	f5 1f       	adc	r31, r21
     dc0:	20 81       	ld	r18, Z
     dc2:	21 30       	cpi	r18, 0x01	; 1
     dc4:	81 f1       	breq	.+96     	; 0xe26 <EXTI_enuInit+0x84>
     dc6:	20 f0       	brcs	.+8      	; 0xdd0 <EXTI_enuInit+0x2e>
     dc8:	22 30       	cpi	r18, 0x02	; 2
     dca:	09 f4       	brne	.+2      	; 0xdce <EXTI_enuInit+0x2c>
     dcc:	57 c0       	rjmp	.+174    	; 0xe7c <EXTI_enuInit+0xda>
     dce:	6a c0       	rjmp	.+212    	; 0xea4 <EXTI_enuInit+0x102>
     dd0:	21 81       	ldd	r18, Z+1	; 0x01
     dd2:	21 11       	cpse	r18, r1
     dd4:	6e c0       	rjmp	.+220    	; 0xeb2 <EXTI_enuInit+0x110>
     dd6:	25 b7       	in	r18, 0x35	; 53
     dd8:	2c 7f       	andi	r18, 0xFC	; 252
     dda:	25 bf       	out	0x35, r18	; 53
     ddc:	22 81       	ldd	r18, Z+2	; 0x02
     dde:	21 30       	cpi	r18, 0x01	; 1
     de0:	69 f0       	breq	.+26     	; 0xdfc <EXTI_enuInit+0x5a>
     de2:	28 f0       	brcs	.+10     	; 0xdee <EXTI_enuInit+0x4c>
     de4:	22 30       	cpi	r18, 0x02	; 2
     de6:	89 f0       	breq	.+34     	; 0xe0a <EXTI_enuInit+0x68>
     de8:	23 30       	cpi	r18, 0x03	; 3
     dea:	b1 f0       	breq	.+44     	; 0xe18 <EXTI_enuInit+0x76>
     dec:	5d c0       	rjmp	.+186    	; 0xea8 <EXTI_enuInit+0x106>
     dee:	25 b7       	in	r18, 0x35	; 53
     df0:	2e 7f       	andi	r18, 0xFE	; 254
     df2:	25 bf       	out	0x35, r18	; 53
     df4:	25 b7       	in	r18, 0x35	; 53
     df6:	2d 7f       	andi	r18, 0xFD	; 253
     df8:	25 bf       	out	0x35, r18	; 53
     dfa:	5b c0       	rjmp	.+182    	; 0xeb2 <EXTI_enuInit+0x110>
     dfc:	25 b7       	in	r18, 0x35	; 53
     dfe:	21 60       	ori	r18, 0x01	; 1
     e00:	25 bf       	out	0x35, r18	; 53
     e02:	25 b7       	in	r18, 0x35	; 53
     e04:	2d 7f       	andi	r18, 0xFD	; 253
     e06:	25 bf       	out	0x35, r18	; 53
     e08:	54 c0       	rjmp	.+168    	; 0xeb2 <EXTI_enuInit+0x110>
     e0a:	25 b7       	in	r18, 0x35	; 53
     e0c:	2e 7f       	andi	r18, 0xFE	; 254
     e0e:	25 bf       	out	0x35, r18	; 53
     e10:	25 b7       	in	r18, 0x35	; 53
     e12:	22 60       	ori	r18, 0x02	; 2
     e14:	25 bf       	out	0x35, r18	; 53
     e16:	4d c0       	rjmp	.+154    	; 0xeb2 <EXTI_enuInit+0x110>
     e18:	25 b7       	in	r18, 0x35	; 53
     e1a:	21 60       	ori	r18, 0x01	; 1
     e1c:	25 bf       	out	0x35, r18	; 53
     e1e:	25 b7       	in	r18, 0x35	; 53
     e20:	22 60       	ori	r18, 0x02	; 2
     e22:	25 bf       	out	0x35, r18	; 53
     e24:	46 c0       	rjmp	.+140    	; 0xeb2 <EXTI_enuInit+0x110>
     e26:	21 81       	ldd	r18, Z+1	; 0x01
     e28:	21 11       	cpse	r18, r1
     e2a:	43 c0       	rjmp	.+134    	; 0xeb2 <EXTI_enuInit+0x110>
     e2c:	25 b7       	in	r18, 0x35	; 53
     e2e:	23 7f       	andi	r18, 0xF3	; 243
     e30:	25 bf       	out	0x35, r18	; 53
     e32:	22 81       	ldd	r18, Z+2	; 0x02
     e34:	21 30       	cpi	r18, 0x01	; 1
     e36:	69 f0       	breq	.+26     	; 0xe52 <EXTI_enuInit+0xb0>
     e38:	28 f0       	brcs	.+10     	; 0xe44 <EXTI_enuInit+0xa2>
     e3a:	22 30       	cpi	r18, 0x02	; 2
     e3c:	89 f0       	breq	.+34     	; 0xe60 <EXTI_enuInit+0xbe>
     e3e:	23 30       	cpi	r18, 0x03	; 3
     e40:	b1 f0       	breq	.+44     	; 0xe6e <EXTI_enuInit+0xcc>
     e42:	34 c0       	rjmp	.+104    	; 0xeac <EXTI_enuInit+0x10a>
     e44:	25 b7       	in	r18, 0x35	; 53
     e46:	2b 7f       	andi	r18, 0xFB	; 251
     e48:	25 bf       	out	0x35, r18	; 53
     e4a:	25 b7       	in	r18, 0x35	; 53
     e4c:	27 7f       	andi	r18, 0xF7	; 247
     e4e:	25 bf       	out	0x35, r18	; 53
     e50:	30 c0       	rjmp	.+96     	; 0xeb2 <EXTI_enuInit+0x110>
     e52:	25 b7       	in	r18, 0x35	; 53
     e54:	24 60       	ori	r18, 0x04	; 4
     e56:	25 bf       	out	0x35, r18	; 53
     e58:	25 b7       	in	r18, 0x35	; 53
     e5a:	27 7f       	andi	r18, 0xF7	; 247
     e5c:	25 bf       	out	0x35, r18	; 53
     e5e:	29 c0       	rjmp	.+82     	; 0xeb2 <EXTI_enuInit+0x110>
     e60:	25 b7       	in	r18, 0x35	; 53
     e62:	2b 7f       	andi	r18, 0xFB	; 251
     e64:	25 bf       	out	0x35, r18	; 53
     e66:	25 b7       	in	r18, 0x35	; 53
     e68:	28 60       	ori	r18, 0x08	; 8
     e6a:	25 bf       	out	0x35, r18	; 53
     e6c:	22 c0       	rjmp	.+68     	; 0xeb2 <EXTI_enuInit+0x110>
     e6e:	25 b7       	in	r18, 0x35	; 53
     e70:	24 60       	ori	r18, 0x04	; 4
     e72:	25 bf       	out	0x35, r18	; 53
     e74:	25 b7       	in	r18, 0x35	; 53
     e76:	28 60       	ori	r18, 0x08	; 8
     e78:	25 bf       	out	0x35, r18	; 53
     e7a:	1b c0       	rjmp	.+54     	; 0xeb2 <EXTI_enuInit+0x110>
     e7c:	21 81       	ldd	r18, Z+1	; 0x01
     e7e:	21 11       	cpse	r18, r1
     e80:	18 c0       	rjmp	.+48     	; 0xeb2 <EXTI_enuInit+0x110>
     e82:	24 b7       	in	r18, 0x34	; 52
     e84:	2f 7b       	andi	r18, 0xBF	; 191
     e86:	24 bf       	out	0x34, r18	; 52
     e88:	22 81       	ldd	r18, Z+2	; 0x02
     e8a:	22 30       	cpi	r18, 0x02	; 2
     e8c:	19 f0       	breq	.+6      	; 0xe94 <EXTI_enuInit+0xf2>
     e8e:	23 30       	cpi	r18, 0x03	; 3
     e90:	29 f0       	breq	.+10     	; 0xe9c <EXTI_enuInit+0xfa>
     e92:	0e c0       	rjmp	.+28     	; 0xeb0 <EXTI_enuInit+0x10e>
     e94:	24 b7       	in	r18, 0x34	; 52
     e96:	2f 7b       	andi	r18, 0xBF	; 191
     e98:	24 bf       	out	0x34, r18	; 52
     e9a:	0b c0       	rjmp	.+22     	; 0xeb2 <EXTI_enuInit+0x110>
     e9c:	24 b7       	in	r18, 0x34	; 52
     e9e:	20 64       	ori	r18, 0x40	; 64
     ea0:	24 bf       	out	0x34, r18	; 52
     ea2:	07 c0       	rjmp	.+14     	; 0xeb2 <EXTI_enuInit+0x110>
     ea4:	83 e0       	ldi	r24, 0x03	; 3
     ea6:	05 c0       	rjmp	.+10     	; 0xeb2 <EXTI_enuInit+0x110>
     ea8:	83 e0       	ldi	r24, 0x03	; 3
     eaa:	03 c0       	rjmp	.+6      	; 0xeb2 <EXTI_enuInit+0x110>
     eac:	83 e0       	ldi	r24, 0x03	; 3
     eae:	01 c0       	rjmp	.+2      	; 0xeb2 <EXTI_enuInit+0x110>
     eb0:	83 e0       	ldi	r24, 0x03	; 3
     eb2:	9f 5f       	subi	r25, 0xFF	; 255
     eb4:	02 c0       	rjmp	.+4      	; 0xeba <EXTI_enuInit+0x118>
     eb6:	90 e0       	ldi	r25, 0x00	; 0
     eb8:	81 e0       	ldi	r24, 0x01	; 1
     eba:	93 30       	cpi	r25, 0x03	; 3
     ebc:	08 f4       	brcc	.+2      	; 0xec0 <EXTI_enuInit+0x11e>
     ebe:	77 cf       	rjmp	.-274    	; 0xdae <EXTI_enuInit+0xc>
     ec0:	08 95       	ret

00000ec2 <EXTI_enuEnable>:
     ec2:	83 30       	cpi	r24, 0x03	; 3
     ec4:	f0 f4       	brcc	.+60     	; 0xf02 <EXTI_enuEnable+0x40>
     ec6:	81 30       	cpi	r24, 0x01	; 1
     ec8:	61 f0       	breq	.+24     	; 0xee2 <EXTI_enuEnable+0x20>
     eca:	18 f0       	brcs	.+6      	; 0xed2 <EXTI_enuEnable+0x10>
     ecc:	82 30       	cpi	r24, 0x02	; 2
     ece:	89 f0       	breq	.+34     	; 0xef2 <EXTI_enuEnable+0x30>
     ed0:	1a c0       	rjmp	.+52     	; 0xf06 <EXTI_enuEnable+0x44>
     ed2:	8b b7       	in	r24, 0x3b	; 59
     ed4:	8f 7b       	andi	r24, 0xBF	; 191
     ed6:	8b bf       	out	0x3b, r24	; 59
     ed8:	8b b7       	in	r24, 0x3b	; 59
     eda:	80 64       	ori	r24, 0x40	; 64
     edc:	8b bf       	out	0x3b, r24	; 59
     ede:	81 e0       	ldi	r24, 0x01	; 1
     ee0:	08 95       	ret
     ee2:	8b b7       	in	r24, 0x3b	; 59
     ee4:	8f 77       	andi	r24, 0x7F	; 127
     ee6:	8b bf       	out	0x3b, r24	; 59
     ee8:	8b b7       	in	r24, 0x3b	; 59
     eea:	80 68       	ori	r24, 0x80	; 128
     eec:	8b bf       	out	0x3b, r24	; 59
     eee:	81 e0       	ldi	r24, 0x01	; 1
     ef0:	08 95       	ret
     ef2:	8b b7       	in	r24, 0x3b	; 59
     ef4:	8f 7d       	andi	r24, 0xDF	; 223
     ef6:	8b bf       	out	0x3b, r24	; 59
     ef8:	8b b7       	in	r24, 0x3b	; 59
     efa:	80 62       	ori	r24, 0x20	; 32
     efc:	8b bf       	out	0x3b, r24	; 59
     efe:	81 e0       	ldi	r24, 0x01	; 1
     f00:	08 95       	ret
     f02:	83 e0       	ldi	r24, 0x03	; 3
     f04:	08 95       	ret
     f06:	81 e0       	ldi	r24, 0x01	; 1
     f08:	08 95       	ret

00000f0a <EXTI_enuCallBackFunc>:

ES_t EXTI_enuCallBackFunc(volatile void (*Copy_PFuncISRFunc)(void*), volatile void *Copy_PvidISRParameter, EXTI_ID_t Copy_enuEXTI_Id)
{
	ES_t Local_enuErrorState = ES_NOK;
	
	if(Copy_PFuncISRFunc != NULL)
     f0a:	00 97       	sbiw	r24, 0x00	; 0
     f0c:	89 f0       	breq	.+34     	; 0xf30 <EXTI_enuCallBackFunc+0x26>
	{
		if(Copy_enuEXTI_Id < MAX_NUM_EXTI)
     f0e:	43 30       	cpi	r20, 0x03	; 3
     f10:	88 f4       	brcc	.+34     	; 0xf34 <EXTI_enuCallBackFunc+0x2a>
		{
			EXTI_APFunc[Copy_enuEXTI_Id] = Copy_PFuncISRFunc;
     f12:	50 e0       	ldi	r21, 0x00	; 0
     f14:	44 0f       	add	r20, r20
     f16:	55 1f       	adc	r21, r21
     f18:	fa 01       	movw	r30, r20
     f1a:	e6 5b       	subi	r30, 0xB6	; 182
     f1c:	fe 4f       	sbci	r31, 0xFE	; 254
     f1e:	91 83       	std	Z+1, r25	; 0x01
     f20:	80 83       	st	Z, r24
			EXTI_APvidGenericParameters[Copy_enuEXTI_Id] = Copy_PvidISRParameter;
     f22:	fa 01       	movw	r30, r20
     f24:	ec 5b       	subi	r30, 0xBC	; 188
     f26:	fe 4f       	sbci	r31, 0xFE	; 254
     f28:	71 83       	std	Z+1, r23	; 0x01
     f2a:	60 83       	st	Z, r22
			Local_enuErrorState = ES_OK;
     f2c:	80 e0       	ldi	r24, 0x00	; 0
     f2e:	08 95       	ret
			Local_enuErrorState = ES_OUT_OF_RANGE;
		}
	}
	else
	{
		Local_enuErrorState = ES_NULL_POINTER;
     f30:	82 e0       	ldi	r24, 0x02	; 2
     f32:	08 95       	ret
			EXTI_APvidGenericParameters[Copy_enuEXTI_Id] = Copy_PvidISRParameter;
			Local_enuErrorState = ES_OK;
		}
		else
		{
			Local_enuErrorState = ES_OUT_OF_RANGE;
     f34:	83 e0       	ldi	r24, 0x03	; 3
	{
		Local_enuErrorState = ES_NULL_POINTER;
	}
	
	return Local_enuErrorState;
}
     f36:	08 95       	ret

00000f38 <__vector_1>:

/* ISR for EXTI0 */
ISR(VECT_INT0)
{	
     f38:	1f 92       	push	r1
     f3a:	0f 92       	push	r0
     f3c:	0f b6       	in	r0, 0x3f	; 63
     f3e:	0f 92       	push	r0
     f40:	11 24       	eor	r1, r1
     f42:	2f 93       	push	r18
     f44:	3f 93       	push	r19
     f46:	4f 93       	push	r20
     f48:	5f 93       	push	r21
     f4a:	6f 93       	push	r22
     f4c:	7f 93       	push	r23
     f4e:	8f 93       	push	r24
     f50:	9f 93       	push	r25
     f52:	af 93       	push	r26
     f54:	bf 93       	push	r27
     f56:	ef 93       	push	r30
     f58:	ff 93       	push	r31
	if(EXTI_APFunc[EXTI0] != NULL)
     f5a:	e0 91 4a 01 	lds	r30, 0x014A	; 0x80014a <EXTI_APFunc>
     f5e:	f0 91 4b 01 	lds	r31, 0x014B	; 0x80014b <EXTI_APFunc+0x1>
     f62:	30 97       	sbiw	r30, 0x00	; 0
     f64:	29 f0       	breq	.+10     	; 0xf70 <__vector_1+0x38>
	{
		EXTI_APFunc[EXTI0](EXTI_APvidGenericParameters[EXTI0]);
     f66:	80 91 44 01 	lds	r24, 0x0144	; 0x800144 <EXTI_APvidGenericParameters>
     f6a:	90 91 45 01 	lds	r25, 0x0145	; 0x800145 <EXTI_APvidGenericParameters+0x1>
     f6e:	09 95       	icall
	}
}
     f70:	ff 91       	pop	r31
     f72:	ef 91       	pop	r30
     f74:	bf 91       	pop	r27
     f76:	af 91       	pop	r26
     f78:	9f 91       	pop	r25
     f7a:	8f 91       	pop	r24
     f7c:	7f 91       	pop	r23
     f7e:	6f 91       	pop	r22
     f80:	5f 91       	pop	r21
     f82:	4f 91       	pop	r20
     f84:	3f 91       	pop	r19
     f86:	2f 91       	pop	r18
     f88:	0f 90       	pop	r0
     f8a:	0f be       	out	0x3f, r0	; 63
     f8c:	0f 90       	pop	r0
     f8e:	1f 90       	pop	r1
     f90:	18 95       	reti

00000f92 <__vector_2>:

/* ISR for EXTI1 */
ISR(VECT_INT1)
{
     f92:	1f 92       	push	r1
     f94:	0f 92       	push	r0
     f96:	0f b6       	in	r0, 0x3f	; 63
     f98:	0f 92       	push	r0
     f9a:	11 24       	eor	r1, r1
     f9c:	2f 93       	push	r18
     f9e:	3f 93       	push	r19
     fa0:	4f 93       	push	r20
     fa2:	5f 93       	push	r21
     fa4:	6f 93       	push	r22
     fa6:	7f 93       	push	r23
     fa8:	8f 93       	push	r24
     faa:	9f 93       	push	r25
     fac:	af 93       	push	r26
     fae:	bf 93       	push	r27
     fb0:	ef 93       	push	r30
     fb2:	ff 93       	push	r31
	if(EXTI_APFunc[EXTI1] != NULL)
     fb4:	e0 91 4c 01 	lds	r30, 0x014C	; 0x80014c <EXTI_APFunc+0x2>
     fb8:	f0 91 4d 01 	lds	r31, 0x014D	; 0x80014d <EXTI_APFunc+0x3>
     fbc:	30 97       	sbiw	r30, 0x00	; 0
     fbe:	29 f0       	breq	.+10     	; 0xfca <__vector_2+0x38>
	{
		EXTI_APFunc[EXTI1](EXTI_APvidGenericParameters[EXTI1]);
     fc0:	80 91 46 01 	lds	r24, 0x0146	; 0x800146 <EXTI_APvidGenericParameters+0x2>
     fc4:	90 91 47 01 	lds	r25, 0x0147	; 0x800147 <EXTI_APvidGenericParameters+0x3>
     fc8:	09 95       	icall
	}
}
     fca:	ff 91       	pop	r31
     fcc:	ef 91       	pop	r30
     fce:	bf 91       	pop	r27
     fd0:	af 91       	pop	r26
     fd2:	9f 91       	pop	r25
     fd4:	8f 91       	pop	r24
     fd6:	7f 91       	pop	r23
     fd8:	6f 91       	pop	r22
     fda:	5f 91       	pop	r21
     fdc:	4f 91       	pop	r20
     fde:	3f 91       	pop	r19
     fe0:	2f 91       	pop	r18
     fe2:	0f 90       	pop	r0
     fe4:	0f be       	out	0x3f, r0	; 63
     fe6:	0f 90       	pop	r0
     fe8:	1f 90       	pop	r1
     fea:	18 95       	reti

00000fec <__vector_3>:

/* ISR for EXTI2 */
ISR(VECT_INT2)
{
     fec:	1f 92       	push	r1
     fee:	0f 92       	push	r0
     ff0:	0f b6       	in	r0, 0x3f	; 63
     ff2:	0f 92       	push	r0
     ff4:	11 24       	eor	r1, r1
     ff6:	2f 93       	push	r18
     ff8:	3f 93       	push	r19
     ffa:	4f 93       	push	r20
     ffc:	5f 93       	push	r21
     ffe:	6f 93       	push	r22
    1000:	7f 93       	push	r23
    1002:	8f 93       	push	r24
    1004:	9f 93       	push	r25
    1006:	af 93       	push	r26
    1008:	bf 93       	push	r27
    100a:	ef 93       	push	r30
    100c:	ff 93       	push	r31
	if(EXTI_APFunc[EXTI2] != NULL)
    100e:	e0 91 4e 01 	lds	r30, 0x014E	; 0x80014e <EXTI_APFunc+0x4>
    1012:	f0 91 4f 01 	lds	r31, 0x014F	; 0x80014f <EXTI_APFunc+0x5>
    1016:	30 97       	sbiw	r30, 0x00	; 0
    1018:	29 f0       	breq	.+10     	; 0x1024 <__vector_3+0x38>
	{
		EXTI_APFunc[EXTI2](EXTI_APvidGenericParameters[EXTI2]);
    101a:	80 91 48 01 	lds	r24, 0x0148	; 0x800148 <EXTI_APvidGenericParameters+0x4>
    101e:	90 91 49 01 	lds	r25, 0x0149	; 0x800149 <EXTI_APvidGenericParameters+0x5>
    1022:	09 95       	icall
	}
    1024:	ff 91       	pop	r31
    1026:	ef 91       	pop	r30
    1028:	bf 91       	pop	r27
    102a:	af 91       	pop	r26
    102c:	9f 91       	pop	r25
    102e:	8f 91       	pop	r24
    1030:	7f 91       	pop	r23
    1032:	6f 91       	pop	r22
    1034:	5f 91       	pop	r21
    1036:	4f 91       	pop	r20
    1038:	3f 91       	pop	r19
    103a:	2f 91       	pop	r18
    103c:	0f 90       	pop	r0
    103e:	0f be       	out	0x3f, r0	; 63
    1040:	0f 90       	pop	r0
    1042:	1f 90       	pop	r1
    1044:	18 95       	reti

00001046 <GIE_enuGloable_Interrupt_Enable>:

ES_t GIE_enuGloable_Interrupt_Enable(void)
{
	ES_t Local_enuErrorState = ES_NOK;
	
	SREG &= ~(MASK_BIT << GIE_I);
    1046:	8f b7       	in	r24, 0x3f	; 63
    1048:	8f 77       	andi	r24, 0x7F	; 127
    104a:	8f bf       	out	0x3f, r24	; 63
	SREG |= (MASK_BIT << GIE_I);
    104c:	8f b7       	in	r24, 0x3f	; 63
    104e:	80 68       	ori	r24, 0x80	; 128
    1050:	8f bf       	out	0x3f, r24	; 63
	Local_enuErrorState = ES_OK;
	
	return Local_enuErrorState;
}
    1052:	80 e0       	ldi	r24, 0x00	; 0
    1054:	08 95       	ret

00001056 <_exit>:
    1056:	f8 94       	cli

00001058 <__stop_program>:
    1058:	ff cf       	rjmp	.-2      	; 0x1058 <__stop_program>
